(dp0
S'METTS MARK'
p1
(dp2
S'to_messages'
p3
I807
sS'bonus/salary'
p4
I1
sS'deferral_payments'
p5
I0
sS'odd_payments'
p6
I00
sS'expenses'
p7
I94299
sS'poi_emails'
p8
I01
sS'poi'
p9
I00
sS'poi_emailratio'
p10
I0
sS'deferred_income'
p11
I0
sS'email_address'
p12
S'mark.metts@enron.com'
p13
sS'long_term_incentive'
p14
I0
sS'deferral_balance'
p15
I0
sS'exercised_stock_options/salary'
p16
I0
sS'retention_incentives/key_payments'
p17
I0
sS'restricted_stock_deferred'
p18
I0
sS'shared_receipt_with_poi'
p19
I702
sS'loan_advances'
p20
I0
sS'from_messages'
p21
I29
sS'other'
p22
I1740
sS'director_fees'
p23
I0
sS'bonus'
p24
I600000
sS'total_stock_value'
p25
I585062
sS'from_poi_to_this_person'
p26
I38
sS'key_payments'
p27
I967528
sS'total_of_totals'
p28
I1646889
sS'from_this_person_to_poi'
p29
I1
sS'retention_incentives'
p30
I585062
sS'restricted_stock'
p31
I585062
sS'salary'
p32
I365788
sS'total_payments'
p33
I1061827
sS'exercised_stock_options'
p34
I0
ssS'BAXTER JOHN C'
p35
(dp36
g3
I0
sg4
I4
sg5
I1295738
sg6
I00
sg7
I11200
sg8
I00
sg9
I00
sg10
I0
sg11
I-1386055
sg12
I0
sg14
I1586055
sg15
I-90317
sg16
I25
sg17
I2
sg18
I0
sg19
I0
sg20
I0
sg21
I0
sg22
I2660303
sg23
I0
sg24
I1200000
sg25
I10623258
sg26
I0
sg27
I4127405
sg28
I16257601
sg29
I0
sg30
I12209313
sg31
I3942714
sg32
I267102
sg33
I5634343
sg34
I6680544
ssS'ELLIOTT STEVEN'
p37
(dp38
g3
I0
sg4
I2
sg5
I0
sg6
I00
sg7
I78552
sg8
I00
sg9
I00
sg10
I0
sg11
I-400729
sg12
S'steven.elliott@enron.com'
p39
sg14
I0
sg15
I-400729
sg16
I28
sg17
I12
sg18
I0
sg19
I0
sg20
I0
sg21
I0
sg22
I12961
sg23
I0
sg24
I350000
sg25
I6678735
sg26
I0
sg27
I533902
sg28
I6890460
sg29
I0
sg30
I6678735
sg31
I1788391
sg32
I170941
sg33
I211725
sg34
I4890344
ssS'CORDES WILLIAM R'
p40
(dp41
g3
I764
sg4
I0
sg5
I0
sg6
I00
sg7
I0
sg8
I01
sg9
I00
sg10
I0
sg11
I0
sg12
S'bill.cordes@enron.com'
p42
sg14
I0
sg15
I0
sg16
I0
sg17
I0
sg18
I0
sg19
I58
sg20
I0
sg21
I12
sg22
I0
sg23
I0
sg24
I0
sg25
I1038185
sg26
I10
sg27
I0
sg28
I1038185
sg29
I0
sg30
I1038185
sg31
I386335
sg32
I0
sg33
I0
sg34
I651850
ssS'HANNON KEVIN P'
p43
(dp44
g3
I1045
sg4
I6
sg5
I0
sg6
I01
sg7
I34039
sg8
I01
sg9
I01
sg10
I0
sg11
I-3117011
sg12
S'kevin.hannon@enron.com'
p45
sg14
I1617011
sg15
I-3117011
sg16
I22
sg17
I4
sg18
I0
sg19
I1035
sg20
I0
sg21
I32
sg22
I11350
sg23
I0
sg24
I1500000
sg25
I6391065
sg26
I32
sg27
I1754643
sg28
I6679747
sg29
I21
sg30
I8008076
sg31
I853064
sg32
I243293
sg33
I288682
sg34
I5538001
ssS'MORDAUNT KRISTINA M'
p46
(dp47
g3
I0
sg4
I1
sg5
I0
sg6
I00
sg7
I35018
sg8
I00
sg9
I00
sg10
I0
sg11
I0
sg12
S'kristina.mordaunt@enron.com'
p48
sg14
I0
sg15
I0
sg16
I0
sg17
I0
sg18
I0
sg19
I0
sg20
I0
sg21
I0
sg22
I1411
sg23
I0
sg24
I325000
sg25
I208510
sg26
I0
sg27
I593504
sg28
I837032
sg29
I0
sg30
I208510
sg31
I208510
sg32
I267093
sg33
I628522
sg34
I0
ssS'MEYER ROCKFORD G'
p49
(dp50
g3
I232
sg4
I0
sg5
I1848227
sg6
I00
sg7
I0
sg8
I01
sg9
I00
sg10
I0
sg11
I0
sg12
S'rockford.meyer@enron.com'
p51
sg14
I0
sg15
I1848227
sg16
I0
sg17
I0
sg18
I0
sg19
I22
sg20
I0
sg21
I28
sg22
I0
sg23
I0
sg24
I0
sg25
I955873
sg26
I0
sg27
I0
sg28
I2804100
sg29
I0
sg30
I955873
sg31
I462384
sg32
I0
sg33
I1848227
sg34
I493489
ssS'MCMAHON JEFFREY'
p52
(dp53
g3
I2355
sg4
I7
sg5
I0
sg6
I00
sg7
I137108
sg8
I01
sg9
I00
sg10
I0
sg11
I0
sg12
S'jeffrey.mcmahon@enron.com'
p54
sg14
I694862
sg15
I0
sg16
I2
sg17
I0
sg18
I0
sg19
I2228
sg20
I0
sg21
I48
sg22
I297353
sg23
I0
sg24
I2600000
sg25
I1662855
sg26
I58
sg27
I3267801
sg28
I5762626
sg29
I26
sg30
I2357717
sg31
I558801
sg32
I370448
sg33
I4099771
sg34
I1104054
ssS'HORTON STANLEY C'
p55
(dp56
g3
I2350
sg4
I0
sg5
I3131860
sg6
I00
sg7
I0
sg8
I01
sg9
I00
sg10
I0
sg11
I0
sg12
S'stanley.horton@enron.com'
p57
sg14
I0
sg15
I3131860
sg16
I0
sg17
I0
sg18
I0
sg19
I1074
sg20
I0
sg21
I1073
sg22
I0
sg23
I0
sg24
I0
sg25
I7256648
sg26
I44
sg27
I0
sg28
I10388508
sg29
I15
sg30
I7256648
sg31
I2046079
sg32
I0
sg33
I3131860
sg34
I5210569
ssS'PIPER GREGORY F'
p58
(dp59
g3
I1238
sg4
I2
sg5
I1130036
sg6
I00
sg7
I43057
sg8
I01
sg9
I00
sg10
I0
sg11
I-33333
sg12
S'greg.piper@enron.com'
p60
sg14
I0
sg15
I1096703
sg16
I4
sg17
I1
sg18
I-409554
sg19
I742
sg20
I0
sg21
I222
sg22
I778
sg23
I0
sg24
I400000
sg25
I880290
sg26
I61
sg27
I597869
sg28
I2617919
sg29
I48
sg30
I880290
sg31
I409554
sg32
I197091
sg33
I1737629
sg34
I880290
ssS'HUMPHREY GENE E'
p61
(dp62
g3
I128
sg4
I0
sg5
I2964506
sg6
I00
sg7
I4994
sg8
I01
sg9
I00
sg10
I0
sg11
I0
sg12
S'gene.humphrey@enron.com'
p63
sg14
I0
sg15
I2964506
sg16
I17
sg17
I17
sg18
I0
sg19
I119
sg20
I0
sg21
I17
sg22
I0
sg23
I0
sg24
I0
sg25
I2282768
sg26
I10
sg27
I130724
sg28
I5382992
sg29
I17
sg30
I2282768
sg31
I0
sg32
I130724
sg33
I3100224
sg34
I2282768
ssS'UMANOFF ADAM S'
p64
(dp65
g3
I111
sg4
I2
sg5
I0
sg6
I00
sg7
I53122
sg8
I01
sg9
I00
sg10
I0
sg11
I0
sg12
S'adam.umanoff@enron.com'
p66
sg14
I0
sg15
I0
sg16
I0
sg17
I0
sg18
I0
sg19
I41
sg20
I0
sg21
I18
sg22
I0
sg23
I0
sg24
I788750
sg25
I0
sg26
I12
sg27
I1077339
sg28
I1130461
sg29
I0
sg30
I0
sg31
I0
sg32
I288589
sg33
I1130461
sg34
I0
ssS'BLACHMAN JEREMY M'
p67
(dp68
g3
I2475
sg4
I3
sg5
I0
sg6
I00
sg7
I84208
sg8
I01
sg9
I00
sg10
I0
sg11
I0
sg12
S'jeremy.blachman@enron.com'
p69
sg14
I831809
sg15
I0
sg16
I3
sg17
I1
sg18
I0
sg19
I2326
sg20
I0
sg21
I14
sg22
I272
sg23
I0
sg24
I850000
sg25
I954354
sg26
I25
sg27
I1098818
sg28
I2969189
sg29
I2
sg30
I1786163
sg31
I189041
sg32
I248546
sg33
I2014835
sg34
I765313
ssS'SUNDE MARTIN'
p70
(dp71
g3
I2647
sg4
I2
sg5
I0
sg6
I00
sg7
I0
sg8
I01
sg9
I00
sg10
I0
sg11
I0
sg12
S'marty.sunde@enron.com'
p72
sg14
I476451
sg15
I0
sg16
I0
sg17
I1
sg18
I0
sg19
I2565
sg20
I0
sg21
I38
sg22
I111122
sg23
I0
sg24
I700000
sg25
I698920
sg26
I37
sg27
I1068608
sg28
I2243979
sg29
I13
sg30
I1175371
sg31
I698920
sg32
I257486
sg33
I1545059
sg34
I0
ssS'GIBBS DANA R'
p73
(dp74
g3
I169
sg4
I0
sg5
I504610
sg6
I00
sg7
I0
sg8
I01
sg9
I00
sg10
I0
sg11
I0
sg12
S'dana.gibbs@enron.com'
p75
sg14
I461912
sg15
I504610
sg16
I0
sg17
I0
sg18
I0
sg19
I23
sg20
I0
sg21
I12
sg22
I0
sg23
I0
sg24
I0
sg25
I2218275
sg26
I0
sg27
I0
sg28
I3184797
sg29
I0
sg30
I2680187
sg31
I0
sg32
I0
sg33
I966522
sg34
I2218275
ssS'LOWRY CHARLES P'
p76
(dp77
g3
I0
sg4
I0
sg5
I0
sg6
I00
sg7
I0
sg8
I00
sg9
I00
sg10
I0
sg11
I0
sg12
I0
sg14
I0
sg15
I0
sg16
I0
sg17
I0
sg18
I-153686
sg19
I0
sg20
I0
sg21
I0
sg22
I0
sg23
I0
sg24
I0
sg25
I372205
sg26
I0
sg27
I0
sg28
I372205
sg29
I0
sg30
I372205
sg31
I153686
sg32
I0
sg33
I0
sg34
I372205
ssS'COLWELL WESLEY'
p78
(dp79
g3
I1758
sg4
I4
sg5
I27610
sg6
I00
sg7
I16514
sg8
I01
sg9
I01
sg10
I0
sg11
I-144062
sg12
S'wes.colwell@enron.com'
p80
sg14
I0
sg15
I-116452
sg16
I0
sg17
I0
sg18
I0
sg19
I1132
sg20
I0
sg21
I40
sg22
I101740
sg23
I0
sg24
I1200000
sg25
I698242
sg26
I240
sg27
I1590282
sg28
I2188586
sg29
I11
sg30
I698242
sg31
I698242
sg32
I288542
sg33
I1490344
sg34
I0
ssS'MULLER MARK S'
p81
(dp82
g3
I136
sg4
I4
sg5
I842924
sg6
I00
sg7
I0
sg8
I01
sg9
I00
sg10
I0
sg11
I-719000
sg12
S's..muller@enron.com'
p83
sg14
I1725545
sg15
I123924
sg16
I4
sg17
I2
sg18
I0
sg19
I114
sg20
I0
sg21
I16
sg22
I947
sg23
I0
sg24
I1100000
sg25
I1416848
sg26
I12
sg27
I1352601
sg28
I4618918
sg29
I0
sg30
I3142393
sg31
I360528
sg32
I251654
sg33
I3202070
sg34
I1056320
ssS'JACKSON CHARLENE R'
p84
(dp85
g3
I258
sg4
I0
sg5
I0
sg6
I00
sg7
I10181
sg8
I01
sg9
I00
sg10
I0
sg11
I0
sg12
S'charlene.jackson@enron.com'
p86
sg14
I0
sg15
I0
sg16
I0
sg17
I1
sg18
I0
sg19
I117
sg20
I0
sg21
I56
sg22
I2435
sg23
I0
sg24
I250000
sg25
I725735
sg26
I25
sg27
I540993
sg28
I1276909
sg29
I19
sg30
I725735
sg31
I540672
sg32
I288558
sg33
I551174
sg34
I185063
ssS'WESTFAHL RICHARD K'
p87
(dp88
g3
I0
sg4
I0
sg5
I0
sg6
I00
sg7
I51870
sg8
I00
sg9
I00
sg10
I0
sg11
I-10800
sg12
S'dick.westfahl@enron.com'
p89
sg14
I256191
sg15
I-10800
sg16
I0
sg17
I1
sg18
I0
sg19
I0
sg20
I0
sg21
I0
sg22
I401130
sg23
I0
sg24
I0
sg25
I384930
sg26
I0
sg27
I464874
sg28
I1147065
sg29
I0
sg30
I641121
sg31
I384930
sg32
I63744
sg33
I762135
sg34
I0
ssS'WALTERS GARETH W'
p90
(dp91
g3
I0
sg4
I0
sg5
I53625
sg6
I00
sg7
I33785
sg8
I00
sg9
I00
sg10
I0
sg11
I0
sg12
I0
sg14
I0
sg15
I53625
sg16
I0
sg17
I0
sg18
I0
sg19
I0
sg20
I0
sg21
I0
sg22
I0
sg23
I0
sg24
I0
sg25
I1030329
sg26
I0
sg27
I0
sg28
I1117739
sg29
I0
sg30
I1030329
sg31
I0
sg32
I0
sg33
I87410
sg34
I1030329
ssS'WALLS JR ROBERT H'
p92
(dp93
g3
I671
sg4
I2
sg5
I0
sg6
I00
sg7
I50936
sg8
I01
sg9
I00
sg10
I0
sg11
I0
sg12
S'rob.walls@enron.com'
p94
sg14
I540751
sg15
I0
sg16
I12
sg17
I5
sg18
I0
sg19
I215
sg20
I0
sg21
I146
sg22
I2
sg23
I0
sg24
I850000
sg25
I5898997
sg26
I17
sg27
I1207093
sg28
I7697777
sg29
I0
sg30
I6439748
sg31
I1552453
sg32
I357091
sg33
I1798780
sg34
I4346544
ssS'KITCHEN LOUISE'
p95
(dp96
g3
I8305
sg4
I11
sg5
I0
sg6
I00
sg7
I5774
sg8
I01
sg9
I00
sg10
I0
sg11
I0
sg12
S'louise.kitchen@enron.com'
p97
sg14
I0
sg15
I0
sg16
I0
sg17
I0
sg18
I0
sg19
I3669
sg20
I0
sg21
I1728
sg22
I93925
sg23
I0
sg24
I3100000
sg25
I547143
sg26
I251
sg27
I3465367
sg28
I4018284
sg29
I194
sg30
I547143
sg31
I466101
sg32
I271442
sg33
I3471141
sg34
I81042
ssS'CHAN RONNIE'
p98
(dp99
g3
I0
sg4
I0
sg5
I0
sg6
I00
sg7
I0
sg8
I00
sg9
I00
sg10
I0
sg11
I-98784
sg12
I0
sg14
I0
sg15
I-98784
sg16
I0
sg17
I0
sg18
I-32460
sg19
I0
sg20
I0
sg21
I0
sg22
I0
sg23
I98784
sg24
I0
sg25
I0
sg26
I0
sg27
I0
sg28
I0
sg29
I0
sg30
I0
sg31
I32460
sg32
I0
sg33
I0
sg34
I0
ssS'BELFER ROBERT'
p100
(dp101
g3
I0
sg4
I0
sg5
I0
sg6
I00
sg7
I3285
sg8
I00
sg9
I00
sg10
I0
sg11
I-102500
sg12
I0
sg14
I0
sg15
I-102500
sg16
I0
sg17
I0
sg18
I-44093
sg19
I0
sg20
I0
sg21
I0
sg22
I0
sg23
I102500
sg24
I0
sg25
I0
sg26
I0
sg27
I0
sg28
I3285
sg29
I0
sg30
I0
sg31
I44093
sg32
I0
sg33
I3285
sg34
I0
ssS'SHANKMAN JEFFREY A'
p102
(dp103
g3
I3221
sg4
I6
sg5
I0
sg6
I00
sg7
I178979
sg8
I01
sg9
I00
sg10
I0
sg11
I0
sg12
S'jeffrey.shankman@enron.com'
p104
sg14
I554422
sg15
I0
sg16
I4
sg17
I1
sg18
I0
sg19
I1730
sg20
I0
sg21
I2681
sg22
I1191
sg23
I0
sg24
I2000000
sg25
I2072035
sg26
I94
sg27
I2305301
sg28
I5110737
sg29
I83
sg30
I2626457
sg31
I630137
sg32
I304110
sg33
I3038702
sg34
I1441898
ssS'WODRASKA JOHN'
p105
(dp106
g3
I0
sg4
I0
sg5
I0
sg6
I00
sg7
I0
sg8
I00
sg9
I00
sg10
I0
sg11
I0
sg12
S'john.wodraska@enron.com'
p107
sg14
I0
sg15
I0
sg16
I0
sg17
I0
sg18
I0
sg19
I0
sg20
I0
sg21
I0
sg22
I189583
sg23
I0
sg24
I0
sg25
I0
sg26
I0
sg27
I189583
sg28
I189583
sg29
I0
sg30
I0
sg31
I0
sg32
I0
sg33
I189583
sg34
I0
ssS'BERGSIEKER RICHARD P'
p108
(dp109
g3
I383
sg4
I1
sg5
I0
sg6
I00
sg7
I59175
sg8
I01
sg9
I00
sg10
I0
sg11
I-485813
sg12
S'rick.bergsieker@enron.com'
p110
sg14
I180250
sg15
I-485813
sg16
I0
sg17
I0
sg18
I0
sg19
I233
sg20
I0
sg21
I59
sg22
I427316
sg23
I0
sg24
I250000
sg25
I659249
sg26
I4
sg27
I865238
sg28
I1278099
sg29
I0
sg30
I839499
sg31
I659249
sg32
I187922
sg33
I618850
sg34
I0
ssS'URQUHART JOHN A'
p111
(dp112
g3
I0
sg4
I0
sg5
I0
sg6
I00
sg7
I228656
sg8
I00
sg9
I00
sg10
I0
sg11
I-36666
sg12
I0
sg14
I0
sg15
I-36666
sg16
I0
sg17
I0
sg18
I0
sg19
I0
sg20
I0
sg21
I0
sg22
I0
sg23
I36666
sg24
I0
sg25
I0
sg26
I0
sg27
I0
sg28
I228656
sg29
I0
sg30
I0
sg31
I0
sg32
I0
sg33
I228656
sg34
I0
ssS'BIBI PHILIPPE A'
p113
(dp114
g3
I1607
sg4
I4
sg5
I0
sg6
I00
sg7
I38559
sg8
I01
sg9
I00
sg10
I0
sg11
I0
sg12
S'philippe.bibi@enron.com'
p115
sg14
I369721
sg15
I0
sg16
I6
sg17
I1
sg18
I0
sg19
I1336
sg20
I0
sg21
I40
sg22
I425688
sg23
I0
sg24
I1000000
sg25
I1843816
sg26
I23
sg27
I1639313
sg28
I3891409
sg29
I8
sg30
I2213537
sg31
I378082
sg32
I213625
sg33
I2047593
sg34
I1465734
ssS'RIEKER PAULA H'
p116
(dp117
g3
I1328
sg4
I2
sg5
I214678
sg6
I00
sg7
I33271
sg8
I01
sg9
I01
sg10
I0
sg11
I-100000
sg12
S'paula.rieker@enron.com'
p118
sg14
I0
sg15
I114678
sg16
I6
sg17
I2
sg18
I0
sg19
I1258
sg20
I0
sg21
I82
sg22
I1950
sg23
I0
sg24
I700000
sg25
I1918887
sg26
I35
sg27
I951151
sg28
I3017987
sg29
I48
sg30
I1918887
sg31
I283649
sg32
I249201
sg33
I1099100
sg34
I1635238
ssS'WHALEY DAVID A'
p119
(dp120
g3
I0
sg4
I0
sg5
I0
sg6
I00
sg7
I0
sg8
I00
sg9
I00
sg10
I0
sg11
I0
sg12
I0
sg14
I0
sg15
I0
sg16
I0
sg17
I0
sg18
I0
sg19
I0
sg20
I0
sg21
I0
sg22
I0
sg23
I0
sg24
I0
sg25
I98718
sg26
I0
sg27
I0
sg28
I98718
sg29
I0
sg30
I98718
sg31
I0
sg32
I0
sg33
I0
sg34
I98718
ssS'BECK SALLY W'
p121
(dp122
g3
I7315
sg4
I3
sg5
I0
sg6
I00
sg7
I37172
sg8
I01
sg9
I00
sg10
I0
sg11
I0
sg12
S'sally.beck@enron.com'
p123
sg14
I0
sg15
I0
sg16
I0
sg17
I0
sg18
I0
sg19
I2639
sg20
I0
sg21
I4343
sg22
I566
sg23
I0
sg24
I700000
sg25
I126027
sg26
I144
sg27
I931896
sg28
I1095095
sg29
I386
sg30
I126027
sg31
I126027
sg32
I231330
sg33
I969068
sg34
I0
ssS'HAUG DAVID L'
p124
(dp125
g3
I573
sg4
I0
sg5
I0
sg6
I00
sg7
I475
sg8
I01
sg9
I00
sg10
I0
sg11
I0
sg12
S'david.haug@enron.com'
p126
sg14
I0
sg15
I0
sg16
I0
sg17
I0
sg18
I0
sg19
I471
sg20
I0
sg21
I19
sg22
I0
sg23
I0
sg24
I0
sg25
I2217299
sg26
I4
sg27
I0
sg28
I2217774
sg29
I7
sg30
I2217299
sg31
I2217299
sg32
I0
sg33
I475
sg34
I0
ssS'ECHOLS JOHN B'
p127
(dp128
g3
I0
sg4
I1
sg5
I0
sg6
I00
sg7
I21530
sg8
I00
sg9
I00
sg10
I0
sg11
I0
sg12
S'john.echols@enron.com'
p129
sg14
I2234774
sg15
I0
sg16
I3
sg17
I7
sg18
I0
sg19
I0
sg20
I0
sg21
I0
sg22
I53775
sg23
I0
sg24
I200000
sg25
I1008941
sg26
I0
sg27
I436020
sg28
I3701265
sg29
I0
sg30
I3243715
sg31
I407503
sg32
I182245
sg33
I2692324
sg34
I601438
ssS'MENDELSOHN JOHN'
p130
(dp131
g3
I0
sg4
I0
sg5
I0
sg6
I00
sg7
I148
sg8
I00
sg9
I00
sg10
I0
sg11
I-103750
sg12
I0
sg14
I0
sg15
I-103750
sg16
I0
sg17
I0
sg18
I0
sg19
I0
sg20
I0
sg21
I0
sg22
I0
sg23
I103750
sg24
I0
sg25
I0
sg26
I0
sg27
I0
sg28
I148
sg29
I0
sg30
I0
sg31
I0
sg32
I0
sg33
I148
sg34
I0
ssS'HICKERSON GARY J'
p132
(dp133
g3
I1320
sg4
I8
sg5
I0
sg6
I00
sg7
I98849
sg8
I01
sg9
I00
sg10
I0
sg11
I0
sg12
S'gary.hickerson@enron.com'
p134
sg14
I69223
sg15
I0
sg16
I0
sg17
I0
sg18
I0
sg19
I900
sg20
I0
sg21
I27
sg22
I1936
sg23
I0
sg24
I1700000
sg25
I441096
sg26
I40
sg27
I1913724
sg28
I2522892
sg29
I1
sg30
I510319
sg31
I441096
sg32
I211788
sg33
I2081796
sg34
I0
ssS'CLINE KENNETH W'
p135
(dp136
g3
I0
sg4
I0
sg5
I0
sg6
I00
sg7
I0
sg8
I00
sg9
I00
sg10
I0
sg11
I0
sg12
I0
sg14
I0
sg15
I0
sg16
I0
sg17
I0
sg18
I-472568
sg19
I0
sg20
I0
sg21
I0
sg22
I0
sg23
I0
sg24
I0
sg25
I189518
sg26
I0
sg27
I0
sg28
I189518
sg29
I0
sg30
I189518
sg31
I662086
sg32
I0
sg33
I0
sg34
I0
ssS'LEWIS RICHARD'
p137
(dp138
g3
I952
sg4
I0
sg5
I0
sg6
I00
sg7
I0
sg8
I01
sg9
I00
sg10
I0
sg11
I0
sg12
S'richard.lewis@enron.com'
p139
sg14
I0
sg15
I0
sg16
I0
sg17
I0
sg18
I0
sg19
I739
sg20
I0
sg21
I26
sg22
I0
sg23
I0
sg24
I0
sg25
I850477
sg26
I10
sg27
I0
sg28
I850477
sg29
I0
sg30
I850477
sg31
I0
sg32
I0
sg33
I0
sg34
I850477
ssS'HAYES ROBERT E'
p140
(dp141
g3
I504
sg4
I0
sg5
I7961
sg6
I00
sg7
I0
sg8
I01
sg9
I00
sg10
I0
sg11
I0
sg12
S'robert.hayes@enron.com'
p142
sg14
I0
sg15
I7961
sg16
I0
sg17
I0
sg18
I0
sg19
I50
sg20
I0
sg21
I12
sg22
I0
sg23
I0
sg24
I0
sg25
I151418
sg26
I16
sg27
I0
sg28
I159379
sg29
I0
sg30
I151418
sg31
I151418
sg32
I0
sg33
I7961
sg34
I0
ssS'MCCARTY DANNY J'
p143
(dp144
g3
I1433
sg4
I0
sg5
I0
sg6
I00
sg7
I0
sg8
I01
sg9
I00
sg10
I0
sg11
I0
sg12
S'danny.mccarty@enron.com'
p145
sg14
I0
sg15
I0
sg16
I0
sg17
I0
sg18
I0
sg19
I508
sg20
I0
sg21
I215
sg22
I0
sg23
I0
sg24
I0
sg25
I758931
sg26
I25
sg27
I0
sg28
I758931
sg29
I2
sg30
I758931
sg31
I94556
sg32
I0
sg33
I0
sg34
I664375
ssS'KOPPER MICHAEL J'
p146
(dp147
g3
I0
sg4
I3
sg5
I0
sg6
I00
sg7
I118134
sg8
I00
sg9
I01
sg10
I0
sg11
I0
sg12
S'michael.kopper@enron.com'
p148
sg14
I602671
sg15
I0
sg16
I0
sg17
I0
sg18
I0
sg19
I0
sg20
I0
sg21
I0
sg22
I907502
sg23
I0
sg24
I800000
sg25
I985032
sg26
I0
sg27
I1931807
sg28
I3637644
sg29
I0
sg30
I1587703
sg31
I985032
sg32
I224305
sg33
I2652612
sg34
I0
ssS'LEFF DANIEL P'
p149
(dp150
g3
I2822
sg4
I3
sg5
I0
sg6
I00
sg7
I0
sg8
I01
sg9
I00
sg10
I0
sg11
I0
sg12
S'dan.leff@enron.com'
p151
sg14
I1387399
sg15
I0
sg16
I0
sg17
I1
sg18
I0
sg19
I2672
sg20
I0
sg21
I63
sg22
I3083
sg23
I0
sg24
I1000000
sg25
I360528
sg26
I67
sg27
I1276829
sg28
I3024756
sg29
I14
sg30
I1747927
sg31
I360528
sg32
I273746
sg33
I2664228
sg34
I0
ssS'LAVORATO JOHN J'
p152
(dp153
g3
I7259
sg4
I23
sg5
I0
sg6
I00
sg7
I49537
sg8
I01
sg9
I00
sg10
I0
sg11
I0
sg12
S'john.lavorato@enron.com'
p154
sg14
I2035380
sg15
I0
sg16
I12
sg17
I0
sg18
I0
sg19
I3962
sg20
I0
sg21
I2585
sg22
I1552
sg23
I0
sg24
I8000000
sg25
I5167144
sg26
I528
sg27
I8340840
sg28
I15592901
sg29
I411
sg30
I7202524
sg31
I1008149
sg32
I339288
sg33
I10425757
sg34
I4158995
ssS'BERBERIAN DAVID'
p155
(dp156
g3
I0
sg4
I0
sg5
I0
sg6
I00
sg7
I11892
sg8
I00
sg9
I00
sg10
I0
sg11
I0
sg12
S'david.berberian@enron.com'
p157
sg14
I0
sg15
I0
sg16
I7
sg17
I11
sg18
I0
sg19
I0
sg20
I0
sg21
I0
sg22
I0
sg23
I0
sg24
I0
sg25
I2493616
sg26
I0
sg27
I216582
sg28
I2722090
sg29
I0
sg30
I2493616
sg31
I869220
sg32
I216582
sg33
I228474
sg34
I1624396
ssS'DETMERING TIMOTHY J'
p158
(dp159
g3
I0
sg4
I2
sg5
I875307
sg6
I00
sg7
I52255
sg8
I00
sg9
I00
sg10
I0
sg11
I-775241
sg12
S'timothy.detmering@enron.com'
p160
sg14
I415657
sg15
I100066
sg16
I9
sg17
I3
sg18
I-315068
sg19
I0
sg20
I0
sg21
I0
sg22
I1105
sg23
I0
sg24
I425000
sg25
I2027865
sg26
I0
sg27
I636605
sg28
I3232448
sg29
I0
sg30
I2443522
sg31
I315068
sg32
I210500
sg33
I1204583
sg34
I2027865
ssS'WAKEHAM JOHN'
p161
(dp162
g3
I0
sg4
I0
sg5
I0
sg6
I00
sg7
I103773
sg8
I00
sg9
I00
sg10
I0
sg11
I0
sg12
I0
sg14
I0
sg15
I0
sg16
I0
sg17
I0
sg18
I0
sg19
I0
sg20
I0
sg21
I0
sg22
I0
sg23
I109298
sg24
I0
sg25
I0
sg26
I0
sg27
I0
sg28
I213071
sg29
I0
sg30
I0
sg31
I0
sg32
I0
sg33
I213071
sg34
I0
ssS'POWERS WILLIAM'
p163
(dp164
g3
I653
sg4
I0
sg5
I0
sg6
I00
sg7
I0
sg8
I01
sg9
I00
sg10
I0
sg11
I-17500
sg12
S'ken.powers@enron.com'
p165
sg14
I0
sg15
I-17500
sg16
I0
sg17
I0
sg18
I0
sg19
I12
sg20
I0
sg21
I26
sg22
I0
sg23
I17500
sg24
I0
sg25
I0
sg26
I0
sg27
I0
sg28
I0
sg29
I0
sg30
I0
sg31
I0
sg32
I0
sg33
I0
sg34
I0
ssS'GOLD JOSEPH'
p166
(dp167
g3
I0
sg4
I2
sg5
I0
sg6
I00
sg7
I0
sg8
I00
sg9
I00
sg10
I0
sg11
I0
sg12
S'joe.gold@enron.com'
p168
sg14
I304805
sg15
I0
sg16
I1
sg17
I0
sg18
I0
sg19
I0
sg20
I0
sg21
I0
sg22
I819288
sg23
I0
sg24
I750000
sg25
I877611
sg26
I0
sg27
I1842168
sg28
I3024584
sg29
I0
sg30
I1182416
sg31
I441096
sg32
I272880
sg33
I2146973
sg34
I436515
ssS'BANNANTINE JAMES M'
p169
(dp170
g3
I566
sg4
I0
sg5
I0
sg6
I00
sg7
I56301
sg8
I01
sg9
I00
sg10
I0
sg11
I-5104
sg12
S'james.bannantine@enron.com'
p171
sg14
I0
sg15
I-5104
sg16
I8482
sg17
I6
sg18
I-560222
sg19
I465
sg20
I0
sg21
I29
sg22
I864523
sg23
I0
sg24
I0
sg25
I5243487
sg26
I39
sg27
I865000
sg28
I6159684
sg29
I0
sg30
I5243487
sg31
I1757552
sg32
I477
sg33
I916197
sg34
I4046157
ssS'DUNCAN JOHN H'
p172
(dp173
g3
I0
sg4
I0
sg5
I0
sg6
I00
sg7
I0
sg8
I00
sg9
I00
sg10
I0
sg11
I-25000
sg12
I0
sg14
I0
sg15
I-25000
sg16
I0
sg17
I0
sg18
I0
sg19
I0
sg20
I0
sg21
I0
sg22
I0
sg23
I102492
sg24
I0
sg25
I371750
sg26
I0
sg27
I0
sg28
I449242
sg29
I0
sg30
I371750
sg31
I0
sg32
I0
sg33
I77492
sg34
I371750
ssS'SHAPIRO RICHARD S'
p174
(dp175
g3
I15149
sg4
I2
sg5
I0
sg6
I00
sg7
I137767
sg8
I01
sg9
I00
sg10
I0
sg11
I0
sg12
S'richard.shapiro@enron.com'
p176
sg14
I0
sg15
I0
sg16
I2
sg17
I1
sg18
I0
sg19
I4527
sg20
I0
sg21
I1215
sg22
I705
sg23
I0
sg24
I650000
sg25
I987001
sg26
I74
sg27
I919781
sg28
I2044549
sg29
I65
sg30
I987001
sg31
I379164
sg32
I269076
sg33
I1057548
sg34
I607837
ssS'SHERRIFF JOHN R'
p177
(dp178
g3
I3187
sg4
I3
sg5
I0
sg6
I00
sg7
I0
sg8
I01
sg9
I00
sg10
I0
sg11
I0
sg12
S'john.sherriff@enron.com'
p179
sg14
I554422
sg15
I0
sg16
I4
sg17
I0
sg18
I0
sg19
I2103
sg20
I0
sg21
I92
sg22
I1852186
sg23
I0
sg24
I1500000
sg25
I3128982
sg26
I28
sg27
I3780966
sg28
I7464370
sg29
I23
sg30
I3683404
sg31
I1293424
sg32
I428780
sg33
I4335388
sg34
I1835558
ssS'SHELBY REX'
p180
(dp181
g3
I225
sg4
I0
sg5
I0
sg6
I00
sg7
I22884
sg8
I01
sg9
I01
sg10
I0
sg11
I-4167
sg12
S'rex.shelby@enron.com'
p182
sg14
I0
sg15
I-4167
sg16
I7
sg17
I1
sg18
I0
sg19
I91
sg20
I0
sg21
I39
sg22
I1573324
sg23
I0
sg24
I200000
sg25
I2493616
sg26
I13
sg27
I1985168
sg28
I4497501
sg29
I14
sg30
I2493616
sg31
I869220
sg32
I211844
sg33
I2003885
sg34
I1624396
ssS'LEMAISTRE CHARLES'
p183
(dp184
g3
I0
sg4
I0
sg5
I0
sg6
I00
sg7
I0
sg8
I00
sg9
I00
sg10
I0
sg11
I-25000
sg12
I0
sg14
I0
sg15
I-25000
sg16
I0
sg17
I0
sg18
I0
sg19
I0
sg20
I0
sg21
I0
sg22
I0
sg23
I112492
sg24
I0
sg25
I412878
sg26
I0
sg27
I0
sg28
I500370
sg29
I0
sg30
I412878
sg31
I0
sg32
I0
sg33
I87492
sg34
I412878
ssS'DEFFNER JOSEPH M'
p185
(dp186
g3
I714
sg4
I2
sg5
I0
sg6
I00
sg7
I41626
sg8
I01
sg9
I00
sg10
I0
sg11
I0
sg12
S'joseph.deffner@enron.com'
p187
sg14
I335349
sg15
I0
sg16
I0
sg17
I0
sg18
I0
sg19
I552
sg20
I0
sg21
I74
sg22
I25553
sg23
I0
sg24
I600000
sg25
I159211
sg26
I115
sg27
I831674
sg28
I1367860
sg29
I4
sg30
I494560
sg31
I141833
sg32
I206121
sg33
I1208649
sg34
I17378
ssS'KISHKILL JOSEPH G'
p188
(dp189
g3
I0
sg4
I0
sg5
I0
sg6
I00
sg7
I116335
sg8
I00
sg9
I00
sg10
I0
sg11
I-51042
sg12
S'joe.kishkill@enron.com'
p190
sg14
I0
sg15
I-51042
sg16
I0
sg17
I1
sg18
I0
sg19
I0
sg20
I0
sg21
I0
sg22
I465357
sg23
I0
sg24
I0
sg25
I1034346
sg26
I0
sg27
I639603
sg28
I1739242
sg29
I0
sg30
I1034346
sg31
I1034346
sg32
I174246
sg33
I704896
sg34
I0
ssS'WHALLEY LAWRENCE G'
p191
(dp192
g3
I6019
sg4
I5
sg5
I0
sg6
I00
sg7
I57838
sg8
I01
sg9
I00
sg10
I0
sg11
I0
sg12
S'greg.whalley@enron.com'
p193
sg14
I808346
sg15
I0
sg16
I6
sg17
I1
sg18
I0
sg19
I3920
sg20
I0
sg21
I556
sg22
I301026
sg23
I0
sg24
I3000000
sg25
I6079137
sg26
I186
sg27
I3811390
sg28
I10756711
sg29
I24
sg30
I6887483
sg31
I2796177
sg32
I510364
sg33
I4677574
sg34
I3282960
ssS'MCCONNELL MICHAEL S'
p194
(dp195
g3
I3329
sg4
I3
sg5
I0
sg6
I00
sg7
I81364
sg8
I01
sg9
I00
sg10
I0
sg11
I0
sg12
S'mike.mcconnell@enron.com'
p196
sg14
I554422
sg15
I0
sg16
I4
sg17
I2
sg18
I0
sg19
I2189
sg20
I0
sg21
I2742
sg22
I540
sg23
I0
sg24
I1100000
sg25
I3101279
sg26
I92
sg27
I1465578
sg28
I5202643
sg29
I194
sg30
I3655701
sg31
I1478269
sg32
I365038
sg33
I2101364
sg34
I1623010
ssS'PIRO JIM'
p197
(dp198
g3
I58
sg4
I0
sg5
I0
sg6
I00
sg7
I0
sg8
I01
sg9
I00
sg10
I0
sg11
I0
sg12
S'jim.piro@enron.com'
p199
sg14
I0
sg15
I0
sg16
I0
sg17
I0
sg18
I0
sg19
I3
sg20
I0
sg21
I16
sg22
I0
sg23
I0
sg24
I0
sg25
I47304
sg26
I0
sg27
I0
sg28
I47304
sg29
I1
sg30
I47304
sg31
I47304
sg32
I0
sg33
I0
sg34
I0
ssS'DELAINEY DAVID W'
p200
(dp201
g3
I3093
sg4
I8
sg5
I0
sg6
I00
sg7
I86174
sg8
I01
sg9
I01
sg10
I0
sg11
I0
sg12
S'david.delainey@enron.com'
p202
sg14
I1294981
sg15
I0
sg16
I6
sg17
I1
sg18
I0
sg19
I2097
sg20
I0
sg21
I3069
sg22
I1661
sg23
I0
sg24
I3000000
sg25
I3614261
sg26
I66
sg27
I3366824
sg28
I8362240
sg29
I609
sg30
I4909242
sg31
I1323148
sg32
I365163
sg33
I4747979
sg34
I2291113
ssS'SULLIVAN-SHAKLOVITZ COLLEEN'
p203
(dp204
g3
I0
sg4
I0
sg5
I181993
sg6
I00
sg7
I0
sg8
I00
sg9
I00
sg10
I0
sg11
I0
sg12
I0
sg14
I554422
sg15
I181993
sg16
I8
sg17
I7
sg18
I0
sg19
I0
sg20
I0
sg21
I0
sg22
I162
sg23
I0
sg24
I100000
sg25
I1362375
sg26
I0
sg27
I262941
sg28
I2361731
sg29
I0
sg30
I1916797
sg31
I0
sg32
I162779
sg33
I999356
sg34
I1362375
ssS'WROBEL BRUCE'
p205
(dp206
g3
I0
sg4
I0
sg5
I0
sg6
I00
sg7
I0
sg8
I00
sg9
I00
sg10
I0
sg11
I0
sg12
I0
sg14
I0
sg15
I0
sg16
I0
sg17
I0
sg18
I0
sg19
I0
sg20
I0
sg21
I0
sg22
I0
sg23
I0
sg24
I0
sg25
I139130
sg26
I0
sg27
I0
sg28
I139130
sg29
I0
sg30
I139130
sg31
I0
sg32
I0
sg33
I0
sg34
I139130
ssS'LINDHOLM TOD A'
p207
(dp208
g3
I0
sg4
I0
sg5
I204075
sg6
I00
sg7
I57727
sg8
I00
sg9
I00
sg10
I0
sg11
I0
sg12
S'tod.lindholm@enron.com'
p209
sg14
I175000
sg15
I204075
sg16
I10
sg17
I7
sg18
I0
sg19
I0
sg20
I0
sg21
I0
sg22
I2630
sg23
I0
sg24
I200000
sg25
I3064208
sg26
I0
sg27
I439087
sg28
I3940097
sg29
I0
sg30
I3239208
sg31
I514847
sg32
I236457
sg33
I875889
sg34
I2549361
ssS'MEYER JEROME J'
p210
(dp211
g3
I0
sg4
I0
sg5
I0
sg6
I00
sg7
I2151
sg8
I00
sg9
I00
sg10
I0
sg11
I-38346
sg12
I0
sg14
I0
sg15
I-38346
sg16
I0
sg17
I0
sg18
I0
sg19
I0
sg20
I0
sg21
I0
sg22
I0
sg23
I38346
sg24
I0
sg25
I0
sg26
I0
sg27
I0
sg28
I2151
sg29
I0
sg30
I0
sg31
I0
sg32
I0
sg33
I2151
sg34
I0
ssS'LAY KENNETH L'
p212
(dp213
g3
I4273
sg4
I6
sg5
I202911
sg6
I01
sg7
I99832
sg8
I01
sg9
I01
sg10
I0
sg11
I-300000
sg12
S'kenneth.lay@enron.com'
p214
sg14
I3600000
sg15
I-97089
sg16
I32
sg17
I2
sg18
I0
sg19
I2411
sg20
I81525000
sg21
I36
sg22
I10359729
sg23
I0
sg24
I7000000
sg25
I49110078
sg26
I123
sg27
I18432050
sg28
I152669871
sg29
I16
sg30
I52710078
sg31
I14761694
sg32
I1072321
sg33
I103559793
sg34
I34348384
ssS'BUTTS ROBERT H'
p215
(dp216
g3
I0
sg4
I2
sg5
I0
sg6
I00
sg7
I9410
sg8
I00
sg9
I00
sg10
I0
sg11
I-75000
sg12
S'bob.butts@enron.com'
p217
sg14
I175000
sg15
I-75000
sg16
I0
sg17
I0
sg18
I0
sg19
I0
sg20
I0
sg21
I0
sg22
I150656
sg23
I0
sg24
I750000
sg25
I417619
sg26
I0
sg27
I1162172
sg28
I1689201
sg29
I0
sg30
I592619
sg31
I417619
sg32
I261516
sg33
I1271582
sg34
I0
ssS'OLSON CINDY K'
p218
(dp219
g3
I1184
sg4
I2
sg5
I77716
sg6
I00
sg7
I63791
sg8
I01
sg9
I00
sg10
I0
sg11
I0
sg12
S'cindy.olson@enron.com'
p220
sg14
I100000
sg15
I77716
sg16
I4
sg17
I2
sg18
I0
sg19
I856
sg20
I0
sg21
I52
sg22
I972
sg23
I0
sg24
I750000
sg25
I2606763
sg26
I20
sg27
I1080050
sg28
I3928320
sg29
I15
sg30
I2706763
sg31
I969729
sg32
I329078
sg33
I1321557
sg34
I1637034
ssS'MCDONALD REBECCA'
p221
(dp222
g3
I894
sg4
I0
sg5
I0
sg6
I00
sg7
I0
sg8
I01
sg9
I00
sg10
I0
sg11
I0
sg12
S'rebecca.mcdonald@enron.com'
p223
sg14
I0
sg15
I0
sg16
I0
sg17
I0
sg18
I0
sg19
I720
sg20
I0
sg21
I13
sg22
I0
sg23
I0
sg24
I0
sg25
I1691366
sg26
I54
sg27
I0
sg28
I1691366
sg29
I1
sg30
I1691366
sg31
I934065
sg32
I0
sg33
I0
sg34
I757301
ssS'CUMBERLAND MICHAEL S'
p224
(dp225
g3
I0
sg4
I1
sg5
I0
sg6
I00
sg7
I22344
sg8
I00
sg9
I00
sg10
I0
sg11
I0
sg12
I0
sg14
I275000
sg15
I0
sg16
I0
sg17
I0
sg18
I0
sg19
I0
sg20
I0
sg21
I0
sg22
I713
sg23
I0
sg24
I325000
sg25
I207940
sg26
I0
sg27
I510612
sg28
I1015896
sg29
I0
sg30
I482940
sg31
I207940
sg32
I184899
sg33
I807956
sg34
I0
ssS'GAHN ROBERT S'
p226
(dp227
g3
I0
sg4
I2
sg5
I73122
sg6
I00
sg7
I50080
sg8
I00
sg9
I00
sg10
I0
sg11
I-1042
sg12
I0
sg14
I0
sg15
I72080
sg16
I0
sg17
I0
sg18
I0
sg19
I0
sg20
I0
sg21
I0
sg22
I76547
sg23
I0
sg24
I509870
sg25
I318607
sg26
I0
sg27
I778425
sg28
I1219192
sg29
I0
sg30
I318607
sg31
I235370
sg32
I192008
sg33
I900585
sg34
I83237
ssS'MCCLELLAN GEORGE'
p228
(dp229
g3
I1744
sg4
I3
sg5
I0
sg6
I00
sg7
I228763
sg8
I01
sg9
I00
sg10
I0
sg11
I-125000
sg12
S'george.mcclellan@enron.com'
p230
sg14
I0
sg15
I-125000
sg16
I1
sg17
I0
sg18
I0
sg19
I1469
sg20
I0
sg21
I49
sg22
I51587
sg23
I0
sg24
I900000
sg25
I947861
sg26
I52
sg27
I1215000
sg28
I2266624
sg29
I0
sg30
I947861
sg31
I441096
sg32
I263413
sg33
I1318763
sg34
I506765
ssS'HERMANN ROBERT J'
p231
(dp232
g3
I0
sg4
I2
sg5
I0
sg6
I00
sg7
I48357
sg8
I00
sg9
I00
sg10
I0
sg11
I-280000
sg12
S'robert.hermann@enron.com'
p233
sg14
I150000
sg15
I-280000
sg16
I0
sg17
I0
sg18
I0
sg19
I0
sg20
I0
sg21
I0
sg22
I416441
sg23
I0
sg24
I700000
sg25
I668132
sg26
I0
sg27
I1379104
sg28
I1965593
sg29
I0
sg30
I818132
sg31
I480632
sg32
I262663
sg33
I1297461
sg34
I187500
ssS'SCRIMSHAW MATTHEW'
p234
(dp235
g3
I0
sg4
I0
sg5
I0
sg6
I00
sg7
I0
sg8
I00
sg9
I00
sg10
I0
sg11
I0
sg12
S'matthew.scrimshaw@enron.com'
p236
sg14
I0
sg15
I0
sg16
I0
sg17
I0
sg18
I0
sg19
I0
sg20
I0
sg21
I0
sg22
I0
sg23
I0
sg24
I0
sg25
I759557
sg26
I0
sg27
I0
sg28
I759557
sg29
I0
sg30
I759557
sg31
I0
sg32
I0
sg33
I0
sg34
I759557
ssS'GATHMANN WILLIAM D'
p237
(dp238
g3
I0
sg4
I0
sg5
I0
sg6
I00
sg7
I0
sg8
I00
sg9
I00
sg10
I0
sg11
I0
sg12
I0
sg14
I0
sg15
I0
sg16
I0
sg17
I0
sg18
I-72419
sg19
I0
sg20
I0
sg21
I0
sg22
I0
sg23
I0
sg24
I0
sg25
I1945360
sg26
I0
sg27
I0
sg28
I1945360
sg29
I0
sg30
I1945360
sg31
I264013
sg32
I0
sg33
I0
sg34
I1753766
ssS'HAEDICKE MARK E'
p239
(dp240
g3
I4009
sg4
I3
sg5
I2157527
sg6
I00
sg7
I76169
sg8
I01
sg9
I00
sg10
I0
sg11
I-934484
sg12
S'mark.haedicke@enron.com'
p241
sg14
I983346
sg15
I1223043
sg16
I1
sg17
I1
sg18
I-329825
sg19
I1847
sg20
I0
sg21
I1941
sg22
I52382
sg23
I0
sg24
I1150000
sg25
I803094
sg26
I180
sg27
I1576507
sg28
I4662159
sg29
I61
sg30
I1786440
sg31
I524169
sg32
I374125
sg33
I3859065
sg34
I608750
ssS'BOWEN JR RAYMOND M'
p242
(dp243
g3
I1858
sg4
I4
sg5
I0
sg6
I00
sg7
I65907
sg8
I01
sg9
I01
sg10
I0
sg11
I-833
sg12
S'raymond.bowen@enron.com'
p244
sg14
I974293
sg15
I-833
sg16
I0
sg17
I0
sg18
I0
sg19
I1593
sg20
I0
sg21
I27
sg22
I1621
sg23
I0
sg24
I1350000
sg25
I252055
sg26
I140
sg27
I1630222
sg28
I2921644
sg29
I15
sg30
I1226348
sg31
I252055
sg32
I278601
sg33
I2669589
sg34
I0
ssS'GILLIS JOHN'
p245
(dp246
g3
I0
sg4
I0
sg5
I0
sg6
I00
sg7
I0
sg8
I00
sg9
I00
sg10
I0
sg11
I0
sg12
I0
sg14
I0
sg15
I0
sg16
I0
sg17
I0
sg18
I0
sg19
I0
sg20
I0
sg21
I0
sg22
I0
sg23
I0
sg24
I0
sg25
I85641
sg26
I0
sg27
I0
sg28
I85641
sg29
I0
sg30
I85641
sg31
I75838
sg32
I0
sg33
I0
sg34
I9803
ssS'FITZGERALD JAY L'
p247
(dp248
g3
I936
sg4
I1
sg5
I0
sg6
I00
sg7
I23870
sg8
I01
sg9
I00
sg10
I0
sg11
I0
sg12
S'jay.fitzgerald@enron.com'
p249
sg14
I556416
sg15
I0
sg16
I3
sg17
I2
sg18
I0
sg19
I723
sg20
I0
sg21
I16
sg22
I285414
sg23
I0
sg24
I350000
sg25
I1621236
sg26
I1
sg27
I834571
sg28
I3036093
sg29
I8
sg30
I2177652
sg31
I956775
sg32
I199157
sg33
I1414857
sg34
I664461
ssS'MORAN MICHAEL P'
p250
(dp251
g3
I672
sg4
I0
sg5
I0
sg6
I00
sg7
I0
sg8
I01
sg9
I00
sg10
I0
sg11
I0
sg12
S'michael.moran@enron.com'
p252
sg14
I0
sg15
I0
sg16
I0
sg17
I0
sg18
I0
sg19
I127
sg20
I0
sg21
I19
sg22
I0
sg23
I0
sg24
I0
sg25
I221141
sg26
I0
sg27
I0
sg28
I221141
sg29
I0
sg30
I221141
sg31
I161602
sg32
I0
sg33
I0
sg34
I59539
ssS'REDMOND BRIAN L'
p253
(dp254
g3
I1671
sg4
I0
sg5
I0
sg6
I00
sg7
I14689
sg8
I01
sg9
I00
sg10
I0
sg11
I0
sg12
S'brian.redmond@enron.com'
p255
sg14
I0
sg15
I0
sg16
I77
sg17
I81
sg18
I0
sg19
I1063
sg20
I0
sg21
I221
sg22
I0
sg23
I0
sg24
I0
sg25
I7890324
sg26
I204
sg27
I96840
sg28
I8001853
sg29
I49
sg30
I7890324
sg31
I381285
sg32
I96840
sg33
I111529
sg34
I7509039
ssS'BAZELIDES PHILIP J'
p256
(dp257
g3
I0
sg4
I0
sg5
I684694
sg6
I00
sg7
I0
sg8
I00
sg9
I00
sg10
I0
sg11
I0
sg12
I0
sg14
I93750
sg15
I684694
sg16
I19
sg17
I20
sg18
I0
sg19
I0
sg20
I0
sg21
I0
sg22
I874
sg23
I0
sg24
I0
sg25
I1599641
sg26
I0
sg27
I81692
sg28
I2459777
sg29
I0
sg30
I1693391
sg31
I0
sg32
I80818
sg33
I860136
sg34
I1599641
ssS'BELDEN TIMOTHY N'
p258
(dp259
g3
I7991
sg4
I24
sg5
I2144013
sg6
I00
sg7
I17355
sg8
I01
sg9
I01
sg10
I0
sg11
I-2334434
sg12
S'tim.belden@enron.com'
p260
sg14
I0
sg15
I-190421
sg16
I4
sg17
I0
sg18
I0
sg19
I5521
sg20
I0
sg21
I484
sg22
I210698
sg23
I0
sg24
I5249999
sg25
I1110705
sg26
I228
sg27
I5674696
sg28
I6612335
sg29
I108
sg30
I1110705
sg31
I157569
sg32
I213999
sg33
I5501630
sg34
I953136
ssS'DURAN WILLIAM D'
p261
(dp262
g3
I904
sg4
I3
sg5
I0
sg6
I00
sg7
I25785
sg8
I01
sg9
I00
sg10
I0
sg11
I0
sg12
S'w.duran@enron.com'
p263
sg14
I1105218
sg15
I0
sg16
I6
sg17
I2
sg18
I0
sg19
I599
sg20
I0
sg21
I12
sg22
I1568
sg23
I0
sg24
I750000
sg25
I1640910
sg26
I106
sg27
I962260
sg28
I3734173
sg29
I3
sg30
I2746128
sg31
I189041
sg32
I210692
sg33
I2093263
sg34
I1451869
ssS'THORN TERENCE H'
p264
(dp265
g3
I266
sg4
I0
sg5
I16586
sg6
I00
sg7
I46145
sg8
I01
sg9
I00
sg10
I0
sg11
I0
sg12
S'terence.thorn@enron.com'
p266
sg14
I200000
sg15
I16586
sg16
I20
sg17
I7
sg18
I0
sg19
I73
sg20
I0
sg21
I41
sg22
I426629
sg23
I0
sg24
I0
sg25
I4817796
sg26
I0
sg27
I648722
sg28
I5729249
sg29
I0
sg30
I5017796
sg31
I365320
sg32
I222093
sg33
I911453
sg34
I4452476
ssS'FASTOW ANDREW S'
p267
(dp268
g3
I0
sg4
I2
sg5
I0
sg6
I00
sg7
I55921
sg8
I00
sg9
I01
sg10
I0
sg11
I-1386055
sg12
S'andrew.fastow@enron.com'
p269
sg14
I1736055
sg15
I-1386055
sg16
I0
sg17
I1
sg18
I0
sg19
I0
sg20
I0
sg21
I0
sg22
I277464
sg23
I0
sg24
I1300000
sg25
I1794412
sg26
I0
sg27
I2018162
sg28
I4218495
sg29
I0
sg30
I3530467
sg31
I1794412
sg32
I440698
sg33
I2424083
sg34
I0
ssS'FOY JOE'
p270
(dp271
g3
I57
sg4
I0
sg5
I181755
sg6
I00
sg7
I0
sg8
I01
sg9
I00
sg10
I0
sg11
I0
sg12
S'tracy.foy@enron.com'
p272
sg14
I0
sg15
I181755
sg16
I0
sg17
I0
sg18
I0
sg19
I2
sg20
I0
sg21
I13
sg22
I0
sg23
I0
sg24
I0
sg25
I343434
sg26
I0
sg27
I0
sg28
I525189
sg29
I0
sg30
I343434
sg31
I0
sg32
I0
sg33
I181755
sg34
I343434
ssS'CALGER CHRISTOPHER F'
p273
(dp274
g3
I2598
sg4
I5
sg5
I0
sg6
I00
sg7
I35818
sg8
I01
sg9
I01
sg10
I0
sg11
I-262500
sg12
S'christopher.calger@enron.com'
p275
sg14
I375304
sg15
I-262500
sg16
I0
sg17
I0
sg18
I0
sg19
I2188
sg20
I0
sg21
I144
sg22
I486
sg23
I0
sg24
I1250000
sg25
I126027
sg26
I199
sg27
I1490675
sg28
I1765324
sg29
I25
sg30
I501331
sg31
I126027
sg32
I240189
sg33
I1639297
sg34
I0
ssS'RICE KENNETH D'
p276
(dp277
g3
I905
sg4
I4
sg5
I0
sg6
I01
sg7
I46950
sg8
I01
sg9
I01
sg10
I0
sg11
I-3504386
sg12
S'ken.rice@enron.com'
p278
sg14
I1617011
sg15
I-3504386
sg16
I47
sg17
I10
sg18
I0
sg19
I864
sg20
I0
sg21
I18
sg22
I174839
sg23
I0
sg24
I1750000
sg25
I22542539
sg26
I42
sg27
I2345475
sg28
I23047589
sg29
I4
sg30
I24159550
sg31
I2748364
sg32
I420636
sg33
I505050
sg34
I19794175
ssS'KAMINSKI WINCENTY J'
p279
(dp280
g3
I4607
sg4
I1
sg5
I0
sg6
I00
sg7
I83585
sg8
I01
sg9
I00
sg10
I0
sg11
I0
sg12
S'vince.kaminski@enron.com'
p281
sg14
I323466
sg15
I0
sg16
I3
sg17
I1
sg18
I0
sg19
I583
sg20
I0
sg21
I14368
sg22
I4669
sg23
I0
sg24
I400000
sg25
I976037
sg26
I41
sg27
I679770
sg28
I2062858
sg29
I171
sg30
I1299503
sg31
I126027
sg32
I275101
sg33
I1086821
sg34
I850010
ssS'COX DAVID'
p282
(dp283
g3
I102
sg4
I2
sg5
I0
sg6
I00
sg7
I27861
sg8
I01
sg9
I00
sg10
I0
sg11
I-41250
sg12
S'chip.cox@enron.com'
p284
sg14
I0
sg15
I-41250
sg16
I0
sg17
I0
sg18
I0
sg19
I71
sg20
I0
sg21
I33
sg22
I494
sg23
I0
sg24
I800000
sg25
I495633
sg26
I0
sg27
I1114782
sg28
I1597026
sg29
I4
sg30
I495633
sg31
I378082
sg32
I314288
sg33
I1101393
sg34
I117551
ssS'OVERDYKE JR JERE C'
p285
(dp286
g3
I0
sg4
I0
sg5
I0
sg6
I00
sg7
I18834
sg8
I00
sg9
I00
sg10
I0
sg11
I0
sg12
S'jere.overdyke@enron.com'
p287
sg14
I135836
sg15
I0
sg16
I55
sg17
I78
sg18
I0
sg19
I0
sg20
I0
sg21
I0
sg22
I176
sg23
I0
sg24
I0
sg25
I7307594
sg26
I0
sg27
I95117
sg28
I7557381
sg29
I0
sg30
I7443430
sg31
I2041016
sg32
I94941
sg33
I249787
sg34
I5266578
ssS'PEREIRA PAULO V. FERRAZ'
p288
(dp289
g3
I0
sg4
I0
sg5
I0
sg6
I00
sg7
I27942
sg8
I00
sg9
I00
sg10
I0
sg11
I-101250
sg12
I0
sg14
I0
sg15
I-101250
sg16
I0
sg17
I0
sg18
I0
sg19
I0
sg20
I0
sg21
I0
sg22
I0
sg23
I101250
sg24
I0
sg25
I0
sg26
I0
sg27
I0
sg28
I27942
sg29
I0
sg30
I0
sg31
I0
sg32
I0
sg33
I27942
sg34
I0
ssS'STABLER FRANK'
p290
(dp291
g3
I0
sg4
I2
sg5
I0
sg6
I00
sg7
I16514
sg8
I00
sg9
I00
sg10
I0
sg11
I0
sg12
S'frank.stabler@enron.com'
p292
sg14
I0
sg15
I0
sg16
I0
sg17
I0
sg18
I0
sg19
I0
sg20
I0
sg21
I0
sg22
I356071
sg23
I0
sg24
I500000
sg25
I511734
sg26
I0
sg27
I1095573
sg28
I1623821
sg29
I0
sg30
I511734
sg31
I511734
sg32
I239502
sg33
I1112087
sg34
I0
ssS'SKILLING JEFFREY K'
p293
(dp294
g3
I3627
sg4
I5
sg5
I0
sg6
I01
sg7
I29336
sg8
I01
sg9
I01
sg10
I0
sg11
I0
sg12
S'jeff.skilling@enron.com'
p295
sg14
I1920000
sg15
I0
sg16
I17
sg17
I4
sg18
I0
sg19
I2042
sg20
I0
sg21
I108
sg22
I22122
sg23
I0
sg24
I5600000
sg25
I26093672
sg26
I88
sg27
I6733380
sg28
I34776388
sg29
I30
sg30
I28013672
sg31
I6843672
sg32
I1111258
sg33
I8682716
sg34
I19250000
ssS'BLAKE JR. NORMAN P'
p296
(dp297
g3
I0
sg4
I0
sg5
I0
sg6
I00
sg7
I1279
sg8
I00
sg9
I00
sg10
I0
sg11
I-113784
sg12
I0
sg14
I0
sg15
I-113784
sg16
I0
sg17
I0
sg18
I0
sg19
I0
sg20
I0
sg21
I0
sg22
I0
sg23
I113784
sg24
I0
sg25
I0
sg26
I0
sg27
I0
sg28
I1279
sg29
I0
sg30
I0
sg31
I0
sg32
I0
sg33
I1279
sg34
I0
ssS'SHERRICK JEFFREY B'
p298
(dp299
g3
I613
sg4
I0
sg5
I0
sg6
I00
sg7
I0
sg8
I01
sg9
I00
sg10
I0
sg11
I0
sg12
S'jeffrey.sherrick@enron.com'
p300
sg14
I0
sg15
I0
sg16
I0
sg17
I0
sg18
I0
sg19
I583
sg20
I0
sg21
I25
sg22
I0
sg23
I0
sg24
I0
sg25
I1832468
sg26
I39
sg27
I0
sg28
I1832468
sg29
I18
sg30
I1832468
sg31
I405999
sg32
I0
sg33
I0
sg34
I1426469
ssS'PRENTICE JAMES'
p301
(dp302
g3
I0
sg4
I0
sg5
I564348
sg6
I00
sg7
I0
sg8
I00
sg9
I00
sg10
I0
sg11
I0
sg12
S'james.prentice@enron.com'
p303
sg14
I0
sg15
I564348
sg16
I0
sg17
I0
sg18
I0
sg19
I0
sg20
I0
sg21
I0
sg22
I0
sg23
I0
sg24
I0
sg25
I1095040
sg26
I0
sg27
I0
sg28
I1659388
sg29
I0
sg30
I1095040
sg31
I208809
sg32
I0
sg33
I564348
sg34
I886231
ssS'GRAY RODNEY'
p304
(dp305
g3
I0
sg4
I0
sg5
I93585
sg6
I00
sg7
I0
sg8
I00
sg9
I00
sg10
I0
sg11
I0
sg12
I0
sg14
I365625
sg15
I93585
sg16
I0
sg17
I0
sg18
I0
sg19
I0
sg20
I0
sg21
I0
sg22
I680833
sg23
I0
sg24
I0
sg25
I0
sg26
I0
sg27
I687448
sg28
I1146658
sg29
I0
sg30
I365625
sg31
I0
sg32
I6615
sg33
I1146658
sg34
I0
ssS'PICKERING MARK R'
p306
(dp307
g3
I898
sg4
I0
sg5
I0
sg6
I00
sg7
I31653
sg8
I01
sg9
I00
sg10
I0
sg11
I0
sg12
S'mark.pickering@enron.com'
p308
sg14
I0
sg15
I0
sg16
I0
sg17
I0
sg18
I0
sg19
I728
sg20
I400000
sg21
I67
sg22
I0
sg23
I0
sg24
I300000
sg25
I28798
sg26
I7
sg27
I955037
sg28
I1415488
sg29
I0
sg30
I28798
sg31
I0
sg32
I655037
sg33
I1386690
sg34
I28798
ssS'NOLES JAMES L'
p309
(dp310
g3
I0
sg4
I0
sg5
I774401
sg6
I00
sg7
I0
sg8
I00
sg9
I00
sg10
I0
sg11
I0
sg12
I0
sg14
I0
sg15
I774401
sg16
I0
sg17
I0
sg18
I-94556
sg19
I0
sg20
I0
sg21
I0
sg22
I0
sg23
I0
sg24
I0
sg25
I368705
sg26
I0
sg27
I0
sg28
I1143106
sg29
I0
sg30
I368705
sg31
I463261
sg32
I0
sg33
I774401
sg34
I0
ssS'KEAN STEVEN J'
p311
(dp312
g3
I12754
sg4
I2
sg5
I0
sg6
I00
sg7
I41953
sg8
I01
sg9
I00
sg10
I0
sg11
I0
sg12
S'steven.kean@enron.com'
p313
sg14
I300000
sg15
I0
sg16
I5
sg17
I4
sg18
I0
sg19
I3639
sg20
I0
sg21
I6759
sg22
I1231
sg23
I0
sg24
I1000000
sg25
I6153642
sg26
I140
sg27
I1405569
sg28
I7901164
sg29
I387
sg30
I6453642
sg31
I4131594
sg32
I404338
sg33
I1747522
sg34
I2022048
ssS'FOWLER PEGGY'
p314
(dp315
g3
I517
sg4
I0
sg5
I0
sg6
I00
sg7
I0
sg8
I01
sg9
I00
sg10
I0
sg11
I0
sg12
S'kulvinder.fowler@enron.com'
p316
sg14
I0
sg15
I0
sg16
I0
sg17
I0
sg18
I0
sg19
I10
sg20
I0
sg21
I36
sg22
I0
sg23
I0
sg24
I0
sg25
I1884748
sg26
I0
sg27
I0
sg28
I1884748
sg29
I0
sg30
I1884748
sg31
I560170
sg32
I0
sg33
I0
sg34
I1324578
ssS'WASAFF GEORGE'
p317
(dp318
g3
I400
sg4
I1
sg5
I831299
sg6
I00
sg7
I0
sg8
I01
sg9
I00
sg10
I0
sg11
I-583325
sg12
S'george.wasaff@enron.com'
p319
sg14
I200000
sg15
I247974
sg16
I6
sg17
I3
sg18
I0
sg19
I337
sg20
I0
sg21
I30
sg22
I1425
sg23
I0
sg24
I325000
sg25
I2056427
sg26
I22
sg27
I586421
sg28
I3090822
sg29
I7
sg30
I2256427
sg31
I388167
sg32
I259996
sg33
I1034395
sg34
I1668260
ssS'WHITE JR THOMAS E'
p320
(dp321
g3
I0
sg4
I1
sg5
I0
sg6
I00
sg7
I81353
sg8
I00
sg9
I00
sg10
I0
sg11
I0
sg12
S'thomas.white@enron.com'
p322
sg14
I0
sg15
I0
sg16
I4
sg17
I8
sg18
I0
sg19
I0
sg20
I0
sg21
I0
sg22
I1085463
sg23
I0
sg24
I450000
sg25
I15144123
sg26
I0
sg27
I1853006
sg28
I17078482
sg29
I0
sg30
I15144123
sg31
I13847074
sg32
I317543
sg33
I1934359
sg34
I1297049
ssS'CHRISTODOULOU DIOMEDES'
p323
(dp324
g3
I0
sg4
I0
sg5
I0
sg6
I00
sg7
I0
sg8
I00
sg9
I00
sg10
I0
sg11
I0
sg12
S'diomedes.christodoulou@enron.com'
p325
sg14
I0
sg15
I0
sg16
I0
sg17
I0
sg18
I0
sg19
I0
sg20
I0
sg21
I0
sg22
I0
sg23
I0
sg24
I0
sg25
I6077885
sg26
I0
sg27
I0
sg28
I6077885
sg29
I0
sg30
I6077885
sg31
I950730
sg32
I0
sg33
I0
sg34
I5127155
ssS'ALLEN PHILLIP K'
p326
(dp327
g3
I2902
sg4
I20
sg5
I2869717
sg6
I00
sg7
I13868
sg8
I01
sg9
I00
sg10
I0
sg11
I-3081055
sg12
S'phillip.allen@enron.com'
p328
sg14
I304805
sg15
I-211338
sg16
I8
sg17
I0
sg18
I-126027
sg19
I1407
sg20
I0
sg21
I2195
sg22
I152
sg23
I0
sg24
I4175000
sg25
I1729541
sg26
I47
sg27
I4377107
sg28
I6213983
sg29
I65
sg30
I2034346
sg31
I126027
sg32
I201955
sg33
I4484442
sg34
I1729541
ssS'SHARP VICTORIA T'
p329
(dp330
g3
I3136
sg4
I2
sg5
I187469
sg6
I00
sg7
I116337
sg8
I01
sg9
I00
sg10
I0
sg11
I0
sg12
S'vicki.sharp@enron.com'
p331
sg14
I422158
sg15
I187469
sg16
I1
sg17
I1
sg18
I0
sg19
I2477
sg20
I0
sg21
I136
sg22
I2401
sg23
I0
sg24
I600000
sg25
I494136
sg26
I24
sg27
I850547
sg28
I2070647
sg29
I6
sg30
I916294
sg31
I213063
sg32
I248146
sg33
I1576511
sg34
I281073
ssS'JAEDICKE ROBERT'
p332
(dp333
g3
I0
sg4
I0
sg5
I0
sg6
I00
sg7
I0
sg8
I00
sg9
I00
sg10
I0
sg11
I-25000
sg12
I0
sg14
I0
sg15
I-25000
sg16
I0
sg17
I0
sg18
I-44093
sg19
I0
sg20
I0
sg21
I0
sg22
I0
sg23
I108750
sg24
I0
sg25
I431750
sg26
I0
sg27
I0
sg28
I515500
sg29
I0
sg30
I431750
sg31
I44093
sg32
I0
sg33
I83750
sg34
I431750
ssS'WINOKUR JR. HERBERT S'
p334
(dp335
g3
I0
sg4
I0
sg5
I0
sg6
I00
sg7
I1413
sg8
I00
sg9
I00
sg10
I0
sg11
I-25000
sg12
I0
sg14
I0
sg15
I-25000
sg16
I0
sg17
I0
sg18
I0
sg19
I0
sg20
I0
sg21
I0
sg22
I0
sg23
I108579
sg24
I0
sg25
I0
sg26
I0
sg27
I0
sg28
I84992
sg29
I0
sg30
I0
sg31
I0
sg32
I0
sg33
I84992
sg34
I0
ssS'BROWN MICHAEL'
p336
(dp337
g3
I1486
sg4
I0
sg5
I0
sg6
I00
sg7
I49288
sg8
I01
sg9
I00
sg10
I0
sg11
I0
sg12
S'michael.brown@enron.com'
p338
sg14
I0
sg15
I0
sg16
I0
sg17
I0
sg18
I0
sg19
I761
sg20
I0
sg21
I41
sg22
I0
sg23
I0
sg24
I0
sg25
I0
sg26
I13
sg27
I0
sg28
I49288
sg29
I1
sg30
I0
sg31
I0
sg32
I0
sg33
I49288
sg34
I0
ssS'BADUM JAMES P'
p339
(dp340
g3
I0
sg4
I0
sg5
I178980
sg6
I00
sg7
I3486
sg8
I00
sg9
I00
sg10
I0
sg11
I0
sg12
I0
sg14
I0
sg15
I178980
sg16
I0
sg17
I0
sg18
I0
sg19
I0
sg20
I0
sg21
I0
sg22
I0
sg23
I0
sg24
I0
sg25
I257817
sg26
I0
sg27
I0
sg28
I440283
sg29
I0
sg30
I257817
sg31
I0
sg32
I0
sg33
I182466
sg34
I257817
ssS'HUGHES JAMES A'
p341
(dp342
g3
I719
sg4
I0
sg5
I0
sg6
I00
sg7
I0
sg8
I01
sg9
I00
sg10
I0
sg11
I0
sg12
S'james.hughes@enron.com'
p343
sg14
I0
sg15
I0
sg16
I0
sg17
I0
sg18
I0
sg19
I589
sg20
I0
sg21
I34
sg22
I0
sg23
I0
sg24
I0
sg25
I1118394
sg26
I35
sg27
I0
sg28
I1118394
sg29
I5
sg30
I1118394
sg31
I363428
sg32
I0
sg33
I0
sg34
I754966
ssS'REYNOLDS LAWRENCE'
p344
(dp345
g3
I0
sg4
I1
sg5
I51365
sg6
I00
sg7
I8409
sg8
I00
sg9
I00
sg10
I0
sg11
I-200000
sg12
I0
sg14
I156250
sg15
I-148635
sg16
I54
sg17
I11
sg18
I-140264
sg19
I0
sg20
I0
sg21
I0
sg22
I202052
sg23
I0
sg24
I100000
sg25
I4221891
sg26
I0
sg27
I378451
sg28
I4616366
sg29
I0
sg30
I4378141
sg31
I201483
sg32
I76399
sg33
I394475
sg34
I4160672
ssS'DIMICHELE RICHARD G'
p346
(dp347
g3
I0
sg4
I3
sg5
I0
sg6
I00
sg7
I35812
sg8
I00
sg9
I00
sg10
I0
sg11
I0
sg12
S'richard.dimichele@enron.com'
p348
sg14
I694862
sg15
I0
sg16
I31
sg17
I5
sg18
I0
sg19
I0
sg20
I0
sg21
I0
sg22
I374689
sg23
I0
sg24
I1000000
sg25
I8317782
sg26
I0
sg27
I1637477
sg28
I10685933
sg29
I0
sg30
I9012644
sg31
I126027
sg32
I262788
sg33
I2368151
sg34
I8191755
ssS'BHATNAGAR SANJAY'
p349
(dp350
g3
I523
sg4
I0
sg5
I0
sg6
I00
sg7
I137864
sg8
I01
sg9
I00
sg10
I0
sg11
I0
sg12
S'sanjay.bhatnagar@enron.com'
p351
sg14
I0
sg15
I0
sg16
I0
sg17
I0
sg18
I-2604490
sg19
I463
sg20
I0
sg21
I29
sg22
I0
sg23
I0
sg24
I0
sS'total_stock_value'
p352
I15456290
sg26
I0
sg27
I0
sg28
I15594154
sg29
I1
sg30
I15456290
sg31
I2604490
sg32
I0
sg33
I137864
sg34
I15456290
ssS'CARTER REBECCA C'
p353
(dp354
g3
I312
sg4
I1
sg5
I0
sg6
I00
sg7
I0
sg8
I01
sg9
I00
sg10
I0
sg11
I-159792
sg12
S'rebecca.carter@enron.com'
p355
sg14
I75000
sg15
I-159792
sg16
I0
sg17
I0
sg18
I-307301
sg19
I196
sg20
I0
sg21
I15
sg22
I540
sg23
I0
sg24
I300000
sg25
I0
sg26
I29
sg27
I562349
sg28
I477557
sg29
I7
sg30
I75000
sg31
I307301
sg32
I261809
sg33
I477557
sg34
I0
ssS'BUCHANAN HAROLD G'
p356
(dp357
g3
I1088
sg4
I2
sg5
I0
sg6
I00
sg7
I600
sg8
I01
sg9
I00
sg10
I0
sg11
I0
sg12
S'john.buchanan@enron.com'
p358
sg14
I304805
sg15
I0
sg16
I3
sg17
I1
sg18
I0
sg19
I23
sg20
I0
sg21
I125
sg22
I1215
sg23
I0
sg24
I500000
sg25
I1014505
sg26
I0
sg27
I749232
sg28
I2069142
sg29
I0
sg30
I1319310
sg31
I189041
sg32
I248017
sg33
I1054637
sg34
I825464
ssS'YEAP SOON'
p359
(dp360
g3
I0
sg4
I0
sg5
I0
sg6
I00
sg7
I55097
sg8
I00
sg9
I00
sg10
I0
sg11
I0
sg12
I0
sg14
I0
sg15
I0
sg16
I0
sg17
I0
sg18
I0
sg19
I0
sg20
I0
sg21
I0
sg22
I0
sg23
I0
sg24
I0
sg25
I192758
sg26
I0
sg27
I0
sg28
I247855
sg29
I0
sg30
I192758
sg31
I0
sg32
I0
sg33
I55097
sg34
I192758
ssS'MURRAY JULIA H'
p361
(dp362
g3
I2192
sg4
I1
sg5
I0
sg6
I00
sg7
I57580
sg8
I01
sg9
I00
sg10
I0
sg11
I0
sg12
S'julia.murray@enron.com'
p363
sg14
I125000
sg15
I0
sg16
I1
sg17
I1
sg18
I0
sg19
I395
sg20
I0
sg21
I45
sg22
I330
sg23
I0
sg24
I400000
sg25
I597461
sg26
I11
sg27
I629614
sg28
I1409655
sg29
I2
sg30
I722461
sg31
I196983
sg32
I229284
sg33
I812194
sg34
I400478
ssS'GARLAND C KEVIN'
p364
(dp365
g3
I209
sg4
I3
sg5
I0
sg6
I00
sg7
I48405
sg8
I01
sg9
I00
sg10
I0
sg11
I0
sg12
S'kevin.garland@enron.com'
p366
sg14
I375304
sg15
I0
sg16
I2
sg17
I1
sg18
I0
sg19
I178
sg20
I0
sg21
I44
sg22
I60814
sg23
I0
sg24
I850000
sg25
I896153
sg26
I10
sg27
I1142760
sg28
I2462622
sg29
I27
sg30
I1271457
sg31
I259907
sg32
I231946
sg33
I1566469
sg34
I636246
ssS'DODSON KEITH'
p367
(dp368
g3
I176
sg4
I0
sg5
I0
sg6
I00
sg7
I28164
sg8
I01
sg9
I00
sg10
I0
sg11
I0
sg12
S'keith.dodson@enron.com'
p369
sg14
I0
sg15
I0
sg16
I0
sg17
I0
sg18
I0
sg19
I114
sg20
I0
sg21
I14
sg22
I774
sg23
I0
sg24
I70000
sg25
I0
sg26
I10
sg27
I291777
sg28
I319941
sg29
I3
sg30
I0
sg31
I0
sg32
I221003
sg33
I319941
sg34
I0
ssS'YEAGER F SCOTT'
p370
(dp371
g3
I0
sg4
I0
sg5
I0
sg6
I00
sg7
I53947
sg8
I00
sg9
I01
sg10
I0
sg11
I0
sg12
S'scott.yeager@enron.com'
p372
sg14
I0
sg15
I0
sg16
I52
sg17
I38
sg18
I0
sg19
I0
sg20
I0
sg21
I0
sg22
I147950
sg23
I0
sg24
I0
sg25
I11884758
sg26
I0
sg27
I306353
sg28
I12245058
sg29
I0
sg30
I11884758
sg31
I3576206
sg32
I158403
sg33
I360300
sg34
I8308552
ssS'HIRKO JOSEPH'
p373
(dp374
g3
I0
sg4
I0
sg5
I10259
sg6
I01
sg7
I77978
sg8
I00
sg9
I01
sg10
I0
sg11
I0
sg12
S'joe.hirko@enron.com'
p375
sg14
I0
sg15
I10259
sg16
I0
sg17
I10772
sg18
I0
sg19
I0
sg20
I0
sg21
I0
sg22
I2856
sg23
I0
sg24
I0
sg25
I30766064
sg26
I0
sg27
I2856
sg28
I30857157
sg29
I0
sg30
I30766064
sg31
I0
sg32
I0
sg33
I91093
sg34
I30766064
ssS'DIETRICH JANET R'
p376
(dp377
g3
I2572
sg4
I2
sg5
I0
sg6
I00
sg7
I3475
sg8
I01
sg9
I00
sg10
I0
sg11
I0
sg12
S'janet.dietrich@enron.com'
p378
sg14
I556416
sg15
I0
sg16
I6
sg17
I2
sg18
I0
sg19
I1902
sg20
I0
sg21
I63
sg22
I473
sg23
I0
sg24
I600000
sg25
I1865087
sg26
I305
sg27
I850573
sg28
I3275551
sg29
I14
sg30
I2421503
sg31
I315068
sg32
I250100
sg33
I1410464
sg34
I1550019
ssS'DERRICK JR. JAMES V'
p379
(dp380
g3
I2181
sg4
I1
sg5
I0
sg6
I00
sg7
I51124
sg8
I01
sg9
I00
sg10
I0
sg11
I-1284000
sg12
S'james.derrick@enron.com'
p381
sg14
I484000
sg15
I-1284000
sg16
I17
sg17
I7
sg18
I-1787380
sg19
I1401
sg20
I0
sg21
I909
sg22
I7482
sg23
I0
sg24
I800000
sg25
I8831913
sg26
I64
sg27
I1299857
sg28
I9382894
sg29
I20
sg30
I9315913
sg31
I1787380
sg32
I492375
sg33
I550981
sg34
I8831913
ssS'FREVERT MARK A'
p382
(dp383
g3
I3275
sg4
I1
sg5
I6426990
sg6
I00
sg7
I86987
sg8
I01
sg9
I00
sg10
I0
sg11
I-3367011
sg12
S'mark.frevert@enron.com'
p384
sg14
I1617011
sg15
I3059979
sg16
I9
sg17
I1
sg18
I0
sg19
I2979
sg20
I2000000
sg21
I21
sg22
I7427621
sg23
I0
sg24
I2000000
sg25
I14622185
sg26
I242
sg27
I10488553
sg28
I31874715
sg29
I6
sg30
I16239196
sg31
I4188667
sg32
I1060932
sg33
I17252530
sg34
I10433518
ssS'PAI LOU L'
p385
(dp386
g3
I0
sg4
I3
sg5
I0
sg6
I00
sg7
I32047
sg8
I00
sg9
I00
sg10
I0
sg11
I0
sg12
S'lou.pai@enron.com'
p387
sg14
I0
sg15
I0
sg16
I58
sg17
I7
sg18
I0
sg19
I0
sg20
I0
sg21
I0
sg22
I1829457
sg23
I0
sg24
I1000000
sg25
I23817930
sg26
I0
sg27
I3091336
sg28
I26941313
sg29
I0
sg30
I23817930
sg31
I8453763
sg32
I261879
sg33
I3123383
sg34
I15364167
ssS'BAY FRANKLIN R'
p388
(dp389
g3
I0
sg4
I1
sg5
I260455
sg6
I00
sg7
I129142
sg8
I00
sg9
I00
sg10
I0
sg11
I-201641
sg12
S'frank.bay@enron.com'
p390
sg14
I0
sg15
I58814
sg16
I0
sg17
I0
sg18
I-82782
sg19
I0
sg20
I0
sg21
I0
sg22
I69
sg23
I0
sg24
I400000
sg25
I63014
sg26
I0
sg27
I639740
sg28
I890710
sg29
I0
sg30
I63014
sg31
I145796
sg32
I239671
sg33
I827696
sg34
I0
ssS'HAYSLETT RODERICK J'
p391
(dp392
g3
I2649
sg4
I0
sg5
I0
sg6
I00
sg7
I0
sg8
I01
sg9
I00
sg10
I0
sg11
I0
sg12
S'rod.hayslett@enron.com'
p393
sg14
I0
sg15
I0
sg16
I0
sg17
I0
sg18
I0
sg19
I571
sg20
I0
sg21
I1061
sg22
I0
sg23
I0
sg24
I0
sg25
I346663
sg26
I35
sg27
I0
sg28
I346663
sg29
I38
sg30
I346663
sg31
I346663
sg32
I0
sg33
I0
sg34
I0
ssS'FUGH JOHN L'
p394
(dp395
g3
I0
sg4
I0
sg5
I50591
sg6
I00
sg7
I0
sg8
I00
sg9
I00
sg10
I0
sg11
I0
sg12
I0
sg14
I0
sg15
I50591
sg16
I0
sg17
I0
sg18
I0
sg19
I0
sg20
I0
sg21
I0
sg22
I0
sg23
I0
sg24
I0
sg25
I176378
sg26
I0
sg27
I0
sg28
I226969
sg29
I0
sg30
I176378
sg31
I0
sg32
I0
sg33
I50591
sg34
I176378
ssS'FALLON JAMES B'
p396
(dp397
g3
I1755
sg4
I8
sg5
I0
sg6
I00
sg7
I95924
sg8
I01
sg9
I00
sg10
I0
sg11
I0
sg12
S'jim.fallon@enron.com'
p398
sg14
I374347
sg15
I0
sg16
I3
sg17
I0
sg18
I0
sg19
I1604
sg20
I0
sg21
I75
sg22
I401481
sg23
I0
sg24
I2500000
sg25
I2332399
sg26
I42
sg27
I3206069
sg28
I6008739
sg29
I37
sg30
I2706746
sg31
I1392142
sg32
I304588
sg33
I3676340
sg34
I940257
ssS'KOENIG MARK E'
p399
(dp400
g3
I2374
sg4
I2
sg5
I0
sg6
I00
sg7
I127017
sg8
I01
sg9
I01
sg10
I0
sg11
I0
sg12
S'mark.koenig@enron.com'
p401
sg14
I300000
sg15
I0
sg16
I2
sg17
I1
sg18
I0
sg19
I2271
sg20
I0
sg21
I61
sg22
I150458
sg23
I0
sg24
I700000
sg25
I1920055
sg26
I53
sg27
I1160404
sg28
I3507476
sg29
I15
sg30
I2220055
sg31
I1248318
sg32
I309946
sg33
I1587421
sg34
I671737
ssS'SAVAGE FRANK'
p402
(dp403
g3
I0
sg4
I0
sg5
I0
sg6
I00
sg7
I0
sg8
I00
sg9
I00
sg10
I0
sg11
I-121284
sg12
I0
sg14
I0
sg15
I-121284
sg16
I0
sg17
I0
sg18
I0
sg19
I0
sg20
I0
sg21
I0
sg22
I0
sg23
I125034
sg24
I0
sg25
I0
sg26
I0
sg27
I0
sg28
I3750
sg29
I0
sg30
I0
sg31
I0
sg32
I0
sg33
I3750
sg34
I0
ssS'IZZO LAWRENCE L'
p404
(dp405
g3
I496
sg4
I0
sg5
I0
sg6
I00
sg7
I28093
sg8
I01
sg9
I00
sg10
I0
sg11
I0
sg12
S'larry.izzo@enron.com'
p406
sg14
I312500
sg15
I0
sg16
I25
sg17
I3
sg18
I0
sg19
I437
sg20
I0
sg21
I19
sg22
I1553729
sg23
I0
sg24
I0
sg25
I5819980
sg26
I28
sg27
I1639003
sg28
I7799576
sg29
I5
sg30
I6132480
sg31
I3654808
sg32
I85274
sg33
I1979596
sg34
I2165172
ssS'TILNEY ELIZABETH A'
p407
(dp408
g3
I460
sg4
I1
sg5
I0
sg6
I00
sg7
I0
sg8
I01
sg9
I00
sg10
I0
sg11
I-575000
sg12
S'elizabeth.tilney@enron.com'
p409
sg14
I275000
sg15
I-575000
sg16
I2
sg17
I2
sg18
I0
sg19
I379
sg20
I0
sg21
I19
sg22
I152055
sg23
I0
sg24
I300000
sg25
I1168042
sg26
I10
sg27
I699393
sg28
I1567435
sg29
I11
sg30
I1443042
sg31
I576792
sg32
I247338
sg33
I399393
sg34
I591250
ssS'MARTIN AMANDA K'
p410
(dp411
g3
I1522
sg4
I0
sg5
I85430
sg6
I00
sg7
I8211
sg8
I01
sg9
I00
sg10
I0
sg11
I0
sg12
S'a..martin@enron.com'
p412
sg14
I5145434
sg15
I85430
sg16
I5
sg17
I2
sg18
I0
sg19
I477
sg20
I0
sg21
I230
sg22
I2818454
sg23
I0
sg24
I0
sg25
I2070306
sg26
I8
sg27
I3167941
sg28
I10477322
sg29
I0
sg30
I7215740
sg31
I0
sg32
I349487
sg33
I8407016
sg34
I2070306
ssS'BUY RICHARD B'
p413
(dp414
g3
I3523
sg4
I2
sg5
I649584
sg6
I00
sg7
I0
sg8
I01
sg9
I00
sg10
I0
sg11
I-694862
sg12
S'rick.buy@enron.com'
p415
sg14
I769862
sg15
I-45278
sg16
I7
sg17
I2
sg18
I0
sg19
I2333
sg20
I0
sg21
I1053
sg22
I400572
sg23
I0
sg24
I900000
sg25
I3444470
sg26
I156
sg27
I1631118
sg28
I5800172
sg29
I71
sg30
I4214332
sg31
I901657
sg32
I330546
sg33
I2355702
sg34
I2542813
ssS'GRAMM WENDY L'
p416
(dp417
g3
I0
sg4
I0
sg5
I0
sg6
I00
sg7
I0
sg8
I00
sg9
I00
sg10
I0
sg11
I0
sg12
I0
sg14
I0
sg15
I0
sg16
I0
sg17
I0
sg18
I0
sg19
I0
sg20
I0
sg21
I0
sg22
I0
sg23
I119292
sg24
I0
sg25
I0
sg26
I0
sg27
I0
sg28
I119292
sg29
I0
sg30
I0
sg31
I0
sg32
I0
sg33
I119292
sg34
I0
ssS'CAUSEY RICHARD A'
p418
(dp419
g3
I1892
sg4
I2
sg5
I0
sg6
I00
sg7
I30674
sg8
I01
sg9
I01
sg10
I0
sg11
I-235000
sg12
S'richard.causey@enron.com'
p420
sg14
I350000
sg15
I-235000
sg16
I0
sg17
I1
sg18
I0
sg19
I1585
sg20
I0
sg21
I49
sg22
I307895
sg23
I0
sg24
I1000000
sg25
I2502063
sg26
I58
sg27
I1723084
sg28
I4370821
sg29
I12
sg30
I2852063
sg31
I2502063
sg32
I415189
sg33
I1868758
sg34
I0
ssS'TAYLOR MITCHELL S'
p421
(dp422
g3
I533
sg4
I2
sg5
I227449
sg6
I00
sg7
I0
sg8
I01
sg9
I00
sg10
I0
sg11
I0
sg12
S'mitchell.taylor@enron.com'
p423
sg14
I0
sg15
I227449
sg16
I11
sg17
I4
sg18
I0
sg19
I300
sg20
I0
sg21
I29
sg22
I0
sg23
I0
sg24
I600000
sg25
I3745048
sg26
I0
sg27
I865214
sg28
I4837711
sg29
I0
sg30
I3745048
sg31
I563798
sg32
I265214
sg33
I1092663
sg34
I3181250
ssS'DONAHUE JR JEFFREY M'
p424
(dp425
g3
I865
sg4
I2
sg5
I0
sg6
I00
sg7
I96268
sg8
I01
sg9
I00
sg10
I0
sg11
I-300000
sg12
S'jeff.donahue@enron.com'
p426
sg14
I0
sg15
I-300000
sg16
I2
sg17
I1
sg18
I0
sg19
I772
sg20
I0
sg21
I22
sg22
I891
sg23
I0
sg24
I800000
sg25
I1080988
sg26
I188
sg27
I1079492
sg28
I1956748
sg29
I11
sg30
I1080988
sg31
I315068
sg32
I278601
sg33
I875760
sg34
I765920
ssS'GLISAN JR BEN F'
p427
(dp428
g3
I873
sg4
I2
sg5
I0
sg6
I00
sg7
I125978
sg8
I01
sg9
I01
sg10
I0
sg11
I0
sg12
S'ben.glisan@enron.com'
p429
sg14
I71023
sg15
I0
sg16
I1
sg17
I0
sg18
I0
sg19
I874
sg20
I0
sg21
I16
sg22
I200308
sg23
I0
sg24
I600000
sg25
I778546
sg26
I52
sg27
I1075283
sg28
I2050830
sg29
I6
sg30
I849569
sg31
I393818
sg32
I274975
sg33
I1272284
sg34
I384728
ss.