(dp0
S'METTS MARK'
p1
(dp2
S'to_messages'
p3
I807
sS'bonus/salary'
p4
F1.6402943781644013
sS'deferral_payments'
p5
I0
sS'expenses'
p6
I94299
sS'poi'
p7
I0
sS'poi_emailratio'
p8
F0.04665071770334928
sS'deferred_income'
p9
I0
sS'long_term_incentive'
p10
I0
sS'exercised_stock_options/salary'
p11
F0.0
sS'retention_incentives/key_payments'
p12
F0.6046977451815349
sS'restricted_stock_deferred'
p13
I0
sS'shared_receipt_with_poi'
p14
I702
sS'loan_advances'
p15
I0
sS'from_messages'
p16
I29
sS'other'
p17
I1740
sS'director_fees'
p18
I0
sS'bonus'
p19
I600000
sS'total_stock_value'
p20
I585062
sS'from_poi_to_this_person'
p21
I38
sS'key_payments'
p22
I967528
sS'from_this_person_to_poi'
p23
I1
sS'retention_incentives'
p24
I585062
sS'restricted_stock'
p25
I585062
sS'salary'
p26
I365788
sS'total_payments'
p27
I1061827
sS'exercised_stock_options'
p28
I0
ssS'BAXTER JOHN C'
p29
(dp30
g3
I0
sg4
F4.492665723206865
sg5
I1295738
sg6
I11200
sg7
I0
sg8
I0
sg9
I-1386055
sg10
I1586055
sg11
F25.0112092009794
sg12
F2.958108787482692
sg13
I0
sg14
I0
sg15
I0
sg16
I0
sg17
I2660303
sg18
I0
sg19
I1200000
sg20
I10623258
sg21
I0
sg22
I4127405
sg23
I0
sg24
I12209313
sg25
I3942714
sg26
I267102
sg27
I5634343
sg28
I6680544
ssS'ELLIOTT STEVEN'
p31
(dp32
g3
I0
sg4
F2.047490069673162
sg5
I0
sg6
I78552
sg7
I0
sg8
I0
sg9
I-400729
sg10
I0
sg11
F28.6083736493878
sg12
F12.509290094436807
sg13
I0
sg14
I0
sg15
I0
sg16
I0
sg17
I12961
sg18
I0
sg19
I350000
sg20
I6678735
sg21
I0
sg22
I533902
sg23
I0
sg24
I6678735
sg25
I1788391
sg26
I170941
sg27
I211725
sg28
I4890344
ssS'CORDES WILLIAM R'
p33
(dp34
g3
I764
sg4
I0
sg5
I0
sg6
I0
sg7
I0
sg8
F0.01288659793814433
sg9
I0
sg10
I0
sg11
I0
sg12
I0
sg13
I0
sg14
I58
sg15
I0
sg16
I12
sg17
I0
sg18
I0
sg19
I0
sg20
I1038185
sg21
I10
sg22
I0
sg23
I0
sg24
I1038185
sg25
I386335
sg26
I0
sg27
I0
sg28
I651850
ssS'HANNON KEVIN P'
p35
(dp36
g3
I1045
sg4
F6.165405498719651
sg5
I0
sg6
I34039
sg7
I1
sg8
F0.04921077065923862
sg9
I-3117011
sg10
I1617011
sg11
F22.762681211543285
sg12
F4.563934657933266
sg13
I0
sg14
I1035
sg15
I0
sg16
I32
sg17
I11350
sg18
I0
sg19
I1500000
sg20
I6391065
sg21
I32
sg22
I1754643
sg23
I21
sg24
I8008076
sg25
I853064
sg26
I243293
sg27
I288682
sg28
I5538001
ssS'MORDAUNT KRISTINA M'
p37
(dp38
g3
I0
sg4
F1.2168046335920448
sg5
I0
sg6
I35018
sg7
I0
sg8
I0
sg9
I0
sg10
I0
sg11
F0.0
sg12
F0.35132029438723245
sg13
I0
sg14
I0
sg15
I0
sg16
I0
sg17
I1411
sg18
I0
sg19
I325000
sg20
I208510
sg21
I0
sg22
I593504
sg23
I0
sg24
I208510
sg25
I208510
sg26
I267093
sg27
I628522
sg28
I0
ssS'MEYER ROCKFORD G'
p39
(dp40
g3
I232
sg4
I0
sg5
I1848227
sg6
I0
sg7
I0
sg8
F0.0
sg9
I0
sg10
I0
sg11
I0
sg12
I0
sg13
I0
sg14
I22
sg15
I0
sg16
I28
sg17
I0
sg18
I0
sg19
I0
sg20
I955873
sg21
I0
sg22
I0
sg23
I0
sg24
I955873
sg25
I462384
sg26
I0
sg27
I1848227
sg28
I493489
ssS'MCMAHON JEFFREY'
p41
(dp42
g3
I2355
sg4
F7.018528916339135
sg5
I0
sg6
I137108
sg7
I0
sg8
F0.03495630461922597
sg9
I0
sg10
I694862
sg11
F2.9803211246922645
sg12
F0.721499564997991
sg13
I0
sg14
I2228
sg15
I0
sg16
I48
sg17
I297353
sg18
I0
sg19
I2600000
sg20
I1662855
sg21
I58
sg22
I3267801
sg23
I26
sg24
I2357717
sg25
I558801
sg26
I370448
sg27
I4099771
sg28
I1104054
ssS'HORTON STANLEY C'
p43
(dp44
g3
I2350
sg4
I0
sg5
I3131860
sg6
I0
sg7
I0
sg8
F0.017236342389716622
sg9
I0
sg10
I0
sg11
I0
sg12
I0
sg13
I0
sg14
I1074
sg15
I0
sg16
I1073
sg17
I0
sg18
I0
sg19
I0
sg20
I7256648
sg21
I44
sg22
I0
sg23
I15
sg24
I7256648
sg25
I2046079
sg26
I0
sg27
I3131860
sg28
I5210569
ssS'PIPER GREGORY F'
p45
(dp46
g3
I1238
sg4
F2.0295193590777862
sg5
I1130036
sg6
I43057
sg7
I0
sg8
F0.07465753424657534
sg9
I-33333
sg10
I0
sg11
F4.466413991506461
sg12
F1.4723794008386453
sg13
I-409554
sg14
I742
sg15
I0
sg16
I222
sg17
I778
sg18
I0
sg19
I400000
sg20
I880290
sg21
I61
sg22
I597869
sg23
I48
sg24
I880290
sg25
I409554
sg26
I197091
sg27
I1737629
sg28
I880290
ssS'HUMPHREY GENE E'
p47
(dp48
g3
I128
sg4
F0.0
sg5
I2964506
sg6
I4994
sg7
I0
sg8
F0.18620689655172415
sg9
I0
sg10
I0
sg11
F17.462501147455708
sg12
F17.462501147455708
sg13
I0
sg14
I119
sg15
I0
sg16
I17
sg17
I0
sg18
I0
sg19
I0
sg20
I2282768
sg21
I10
sg22
I130724
sg23
I17
sg24
I2282768
sg25
I0
sg26
I130724
sg27
I3100224
sg28
I2282768
ssS'UMANOFF ADAM S'
p49
(dp50
g3
I111
sg4
F2.7331256562100426
sg5
I0
sg6
I53122
sg7
I0
sg8
F0.09302325581395349
sg9
I0
sg10
I0
sg11
F0.0
sg12
F0.0
sg13
I0
sg14
I41
sg15
I0
sg16
I18
sg17
I0
sg18
I0
sg19
I788750
sg20
I0
sg21
I12
sg22
I1077339
sg23
I0
sg24
I0
sg25
I0
sg26
I288589
sg27
I1130461
sg28
I0
ssS'BLACHMAN JEREMY M'
p51
(dp52
g3
I2475
sg4
F3.419890080709406
sg5
I0
sg6
I84208
sg7
I0
sg8
F0.010847730012053034
sg9
I0
sg10
I831809
sg11
F3.0791603968681853
sg12
F1.6255312526733272
sg13
I0
sg14
I2326
sg15
I0
sg16
I14
sg17
I272
sg18
I0
sg19
I850000
sg20
I954354
sg21
I25
sg22
I1098818
sg23
I2
sg24
I1786163
sg25
I189041
sg26
I248546
sg27
I2014835
sg28
I765313
ssS'SUNDE MARTIN'
p53
(dp54
g3
I2647
sg4
F2.7185944090164127
sg5
I0
sg6
I0
sg7
I0
sg8
F0.0186219739292365
sg9
I0
sg10
I476451
sg11
F0.0
sg12
F1.099908479068096
sg13
I0
sg14
I2565
sg15
I0
sg16
I38
sg17
I111122
sg18
I0
sg19
I700000
sg20
I698920
sg21
I37
sg22
I1068608
sg23
I13
sg24
I1175371
sg25
I698920
sg26
I257486
sg27
I1545059
sg28
I0
ssS'GIBBS DANA R'
p55
(dp56
g3
I169
sg4
I0
sg5
I504610
sg6
I0
sg7
I0
sg8
F0.0
sg9
I0
sg10
I461912
sg11
I0
sg12
I0
sg13
I0
sg14
I23
sg15
I0
sg16
I12
sg17
I0
sg18
I0
sg19
I0
sg20
I2218275
sg21
I0
sg22
I0
sg23
I0
sg24
I2680187
sg25
I0
sg26
I0
sg27
I966522
sg28
I2218275
ssS'LOWRY CHARLES P'
p57
(dp58
g3
I0
sg4
I0
sg5
I0
sg6
I0
sg7
I0
sg8
I0
sg9
I0
sg10
I0
sg11
I0
sg12
I0
sg13
I-153686
sg14
I0
sg15
I0
sg16
I0
sg17
I0
sg18
I0
sg19
I0
sg20
I372205
sg21
I0
sg22
I0
sg23
I0
sg24
I372205
sg25
I153686
sg26
I0
sg27
I0
sg28
I372205
ssS'COLWELL WESLEY'
p59
(dp60
g3
I1758
sg4
F4.158839960906905
sg5
I27610
sg6
I16514
sg7
I1
sg8
F0.13959955506117908
sg9
I-144062
sg10
I0
sg11
F0.0
sg12
F0.43906803950494316
sg13
I0
sg14
I1132
sg15
I0
sg16
I40
sg17
I101740
sg18
I0
sg19
I1200000
sg20
I698242
sg21
I240
sg22
I1590282
sg23
I11
sg24
I698242
sg25
I698242
sg26
I288542
sg27
I1490344
sg28
I0
ssS'MULLER MARK S'
p61
(dp62
g3
I136
sg4
F4.3710809285765375
sg5
I842924
sg6
I0
sg7
I0
sg8
F0.07894736842105263
sg9
I-719000
sg10
I1725545
sg11
F4.197509278612698
sg12
F2.3232224432778033
sg13
I0
sg14
I114
sg15
I0
sg16
I16
sg17
I947
sg18
I0
sg19
I1100000
sg20
I1416848
sg21
I12
sg22
I1352601
sg23
I0
sg24
I3142393
sg25
I360528
sg26
I251654
sg27
I3202070
sg28
I1056320
ssS'JACKSON CHARLENE R'
p63
(dp64
g3
I258
sg4
F0.8663769502145149
sg5
I0
sg6
I10181
sg7
I0
sg8
F0.14012738853503184
sg9
I0
sg10
I0
sg11
F0.6413372701501951
sg12
F1.3414868584251551
sg13
I0
sg14
I117
sg15
I0
sg16
I56
sg17
I2435
sg18
I0
sg19
I250000
sg20
I725735
sg21
I25
sg22
I540993
sg23
I19
sg24
I725735
sg25
I540672
sg26
I288558
sg27
I551174
sg28
I185063
ssS'WESTFAHL RICHARD K'
p65
(dp66
g3
I0
sg4
F0.0
sg5
I0
sg6
I51870
sg7
I0
sg8
I0
sg9
I-10800
sg10
I256191
sg11
F0.0
sg12
F1.3791285380554732
sg13
I0
sg14
I0
sg15
I0
sg16
I0
sg17
I401130
sg18
I0
sg19
I0
sg20
I384930
sg21
I0
sg22
I464874
sg23
I0
sg24
I641121
sg25
I384930
sg26
I63744
sg27
I762135
sg28
I0
ssS'WALTERS GARETH W'
p67
(dp68
g3
I0
sg4
I0
sg5
I53625
sg6
I33785
sg7
I0
sg8
I0
sg9
I0
sg10
I0
sg11
I0
sg12
I0
sg13
I0
sg14
I0
sg15
I0
sg16
I0
sg17
I0
sg18
I0
sg19
I0
sg20
I1030329
sg21
I0
sg22
I0
sg23
I0
sg24
I1030329
sg25
I0
sg26
I0
sg27
I87410
sg28
I1030329
ssS'WALLS JR ROBERT H'
p69
(dp70
g3
I671
sg4
F2.380345626184922
sg5
I0
sg6
I50936
sg7
I0
sg8
F0.0208078335373317
sg9
I0
sg10
I540751
sg11
F12.172090587553313
sg12
F5.334922826990132
sg13
I0
sg14
I215
sg15
I0
sg16
I146
sg17
I2
sg18
I0
sg19
I850000
sg20
I5898997
sg21
I17
sg22
I1207093
sg23
I0
sg24
I6439748
sg25
I1552453
sg26
I357091
sg27
I1798780
sg28
I4346544
ssS'KITCHEN LOUISE'
p71
(dp72
g3
I8305
sg4
F11.420487617981005
sg5
I0
sg6
I5774
sg7
I0
sg8
F0.044353633011063494
sg9
I0
sg10
I0
sg11
F0.2985610185601344
sg12
F0.15788890469609712
sg13
I0
sg14
I3669
sg15
I0
sg16
I1728
sg17
I93925
sg18
I0
sg19
I3100000
sg20
I547143
sg21
I251
sg22
I3465367
sg23
I194
sg24
I547143
sg25
I466101
sg26
I271442
sg27
I3471141
sg28
I81042
ssS'CHAN RONNIE'
p73
(dp74
g3
I0
sg4
I0
sg5
I0
sg6
I0
sg7
I0
sg8
I0
sg9
I-98784
sg10
I0
sg11
I0
sg12
I0
sg13
I-32460
sg14
I0
sg15
I0
sg16
I0
sg17
I0
sg18
I98784
sg19
I0
sg20
I0
sg21
I0
sg22
I0
sg23
I0
sg24
I0
sg25
I32460
sg26
I0
sg27
I0
sg28
I0
ssS'BELFER ROBERT'
p75
(dp76
g3
I0
sg4
I0
sg5
I-102500
sg6
I0
sg7
I0
sg8
I0
sg9
I0
sg10
I0
sg11
I0
sg12
I0
sg13
I44093
sg14
I0
sg15
I0
sg16
I0
sg17
I0
sg18
I3285
sg19
I0
sg20
I-44093
sg21
I0
sg22
I0
sg23
I0
sg24
I-44093
sg25
I0
sg26
I0
sg27
I102500
sg28
I3285
ssS'SHANKMAN JEFFREY A'
p77
(dp78
g3
I3221
sg4
F6.576567689322943
sg5
I0
sg6
I178979
sg7
I0
sg8
F0.029989833954591663
sg9
I0
sg10
I554422
sg11
F4.741369899049686
sg12
F1.1393119596963694
sg13
I0
sg14
I1730
sg15
I0
sg16
I2681
sg17
I1191
sg18
I0
sg19
I2000000
sg20
I2072035
sg21
I94
sg22
I2305301
sg23
I83
sg24
I2626457
sg25
I630137
sg26
I304110
sg27
I3038702
sg28
I1441898
ssS'WODRASKA JOHN'
p79
(dp80
g3
I0
sg4
I0
sg5
I0
sg6
I0
sg7
I0
sg8
I0
sg9
I0
sg10
I0
sg11
I0
sg12
F0.0
sg13
I0
sg14
I0
sg15
I0
sg16
I0
sg17
I189583
sg18
I0
sg19
I0
sg20
I0
sg21
I0
sg22
I189583
sg23
I0
sg24
I0
sg25
I0
sg26
I0
sg27
I189583
sg28
I0
ssS'BERGSIEKER RICHARD P'
p81
(dp82
g3
I383
sg4
F1.3303391832781686
sg5
I0
sg6
I59175
sg7
I0
sg8
F0.00904977375565611
sg9
I-485813
sg10
I180250
sg11
F0.0
sg12
F0.9702521156028746
sg13
I0
sg14
I233
sg15
I0
sg16
I59
sg17
I427316
sg18
I0
sg19
I250000
sg20
I659249
sg21
I4
sg22
I865238
sg23
I0
sg24
I839499
sg25
I659249
sg26
I187922
sg27
I618850
sg28
I0
ssS'URQUHART JOHN A'
p83
(dp84
g3
I0
sg4
I0
sg5
I0
sg6
I228656
sg7
I0
sg8
I0
sg9
I-36666
sg10
I0
sg11
I0
sg12
I0
sg13
I0
sg14
I0
sg15
I0
sg16
I0
sg17
I0
sg18
I36666
sg19
I0
sg20
I0
sg21
I0
sg22
I0
sg23
I0
sg24
I0
sg25
I0
sg26
I0
sg27
I228656
sg28
I0
ssS'BIBI PHILIPPE A'
p85
(dp86
g3
I1607
sg4
F4.681100058513751
sg5
I0
sg6
I38559
sg7
I0
sg8
F0.018822100789313904
sg9
I0
sg10
I369721
sg11
F6.861247513165594
sg12
F1.3502833199029105
sg13
I0
sg14
I1336
sg15
I0
sg16
I40
sg17
I425688
sg18
I0
sg19
I1000000
sg20
I1843816
sg21
I23
sg22
I1639313
sg23
I8
sg24
I2213537
sg25
I378082
sg26
I213625
sg27
I2047593
sg28
I1465734
ssS'RIEKER PAULA H'
p87
(dp88
g3
I1328
sg4
F2.8089774920646384
sg5
I214678
sg6
I33271
sg7
I1
sg8
F0.058865248226950356
sg9
I-100000
sg10
I0
sg11
F6.561923908812565
sg12
F2.017436768714957
sg13
I0
sg14
I1258
sg15
I0
sg16
I82
sg17
I1950
sg18
I0
sg19
I700000
sg20
I1918887
sg21
I35
sg22
I951151
sg23
I48
sg24
I1918887
sg25
I283649
sg26
I249201
sg27
I1099100
sg28
I1635238
ssS'WHALEY DAVID A'
p89
(dp90
g3
I0
sg4
I0
sg5
I0
sg6
I0
sg7
I0
sg8
I0
sg9
I0
sg10
I0
sg11
I0
sg12
I0
sg13
I0
sg14
I0
sg15
I0
sg16
I0
sg17
I0
sg18
I0
sg19
I0
sg20
I98718
sg21
I0
sg22
I0
sg23
I0
sg24
I98718
sg25
I0
sg26
I0
sg27
I0
sg28
I98718
ssS'BECK SALLY W'
p91
(dp92
g3
I7315
sg4
F3.025980201443825
sg5
I0
sg6
I37172
sg7
I0
sg8
F0.0454623434551381
sg9
I0
sg10
I0
sg11
F0.0
sg12
F0.1352371938499575
sg13
I0
sg14
I2639
sg15
I0
sg16
I4343
sg17
I566
sg18
I0
sg19
I700000
sg20
I126027
sg21
I144
sg22
I931896
sg23
I386
sg24
I126027
sg25
I126027
sg26
I231330
sg27
I969068
sg28
I0
ssS'HAUG DAVID L'
p93
(dp94
g3
I573
sg4
I0
sg5
I0
sg6
I475
sg7
I0
sg8
F0.018581081081081082
sg9
I0
sg10
I0
sg11
I0
sg12
I0
sg13
I0
sg14
I471
sg15
I0
sg16
I19
sg17
I0
sg18
I0
sg19
I0
sg20
I2217299
sg21
I4
sg22
I0
sg23
I7
sg24
I2217299
sg25
I2217299
sg26
I0
sg27
I475
sg28
I0
ssS'ECHOLS JOHN B'
p95
(dp96
g3
I0
sg4
F1.0974237976350518
sg5
I0
sg6
I21530
sg7
I0
sg8
I0
sg9
I0
sg10
I2234774
sg11
F3.300161870010151
sg12
F7.4393720471538005
sg13
I0
sg14
I0
sg15
I0
sg16
I0
sg17
I53775
sg18
I0
sg19
I200000
sg20
I1008941
sg21
I0
sg22
I436020
sg23
I0
sg24
I3243715
sg25
I407503
sg26
I182245
sg27
I2692324
sg28
I601438
ssS'MENDELSOHN JOHN'
p97
(dp98
g3
I0
sg4
I0
sg5
I0
sg6
I148
sg7
I0
sg8
I0
sg9
I-103750
sg10
I0
sg11
I0
sg12
I0
sg13
I0
sg14
I0
sg15
I0
sg16
I0
sg17
I0
sg18
I103750
sg19
I0
sg20
I0
sg21
I0
sg22
I0
sg23
I0
sg24
I0
sg25
I0
sg26
I0
sg27
I148
sg28
I0
ssS'HICKERSON GARY J'
p99
(dp100
g3
I1320
sg4
F8.02689481934765
sg5
I0
sg6
I98849
sg7
I0
sg8
F0.030438010393466965
sg9
I0
sg10
I69223
sg11
F0.0
sg12
F0.26666279986037694
sg13
I0
sg14
I900
sg15
I0
sg16
I27
sg17
I1936
sg18
I0
sg19
I1700000
sg20
I441096
sg21
I40
sg22
I1913724
sg23
I1
sg24
I510319
sg25
I441096
sg26
I211788
sg27
I2081796
sg28
I0
ssS'CLINE KENNETH W'
p101
(dp102
g3
I0
sg4
I0
sg5
I0
sg6
I0
sg7
I0
sg8
I0
sg9
I0
sg10
I0
sg11
I0
sg12
I0
sg13
I-472568
sg14
I0
sg15
I0
sg16
I0
sg17
I0
sg18
I0
sg19
I0
sg20
I189518
sg21
I0
sg22
I0
sg23
I0
sg24
I189518
sg25
I662086
sg26
I0
sg27
I0
sg28
I0
ssS'LEWIS RICHARD'
p103
(dp104
g3
I952
sg4
I0
sg5
I0
sg6
I0
sg7
I0
sg8
F0.010224948875255624
sg9
I0
sg10
I0
sg11
I0
sg12
I0
sg13
I0
sg14
I739
sg15
I0
sg16
I26
sg17
I0
sg18
I0
sg19
I0
sg20
I850477
sg21
I10
sg22
I0
sg23
I0
sg24
I850477
sg25
I0
sg26
I0
sg27
I0
sg28
I850477
ssS'HAYES ROBERT E'
p105
(dp106
g3
I504
sg4
I0
sg5
I7961
sg6
I0
sg7
I0
sg8
F0.031007751937984496
sg9
I0
sg10
I0
sg11
I0
sg12
I0
sg13
I0
sg14
I50
sg15
I0
sg16
I12
sg17
I0
sg18
I0
sg19
I0
sg20
I151418
sg21
I16
sg22
I0
sg23
I0
sg24
I151418
sg25
I151418
sg26
I0
sg27
I7961
sg28
I0
ssS'MCCARTY DANNY J'
p107
(dp108
g3
I1433
sg4
I0
sg5
I0
sg6
I0
sg7
I0
sg8
F0.016383495145631068
sg9
I0
sg10
I0
sg11
I0
sg12
I0
sg13
I0
sg14
I508
sg15
I0
sg16
I215
sg17
I0
sg18
I0
sg19
I0
sg20
I758931
sg21
I25
sg22
I0
sg23
I2
sg24
I758931
sg25
I94556
sg26
I0
sg27
I0
sg28
I664375
ssS'KOPPER MICHAEL J'
p109
(dp110
g3
I0
sg4
F3.5665723011078665
sg5
I0
sg6
I118134
sg7
I1
sg8
I0
sg9
I0
sg10
I602671
sg11
F0.0
sg12
F0.8218745454385453
sg13
I0
sg14
I0
sg15
I0
sg16
I0
sg17
I907502
sg18
I0
sg19
I800000
sg20
I985032
sg21
I0
sg22
I1931807
sg23
I0
sg24
I1587703
sg25
I985032
sg26
I224305
sg27
I2652612
sg28
I0
ssS'LEFF DANIEL P'
p111
(dp112
g3
I2822
sg4
F3.653021414011529
sg5
I0
sg6
I0
sg7
I0
sg8
F0.028076256499133447
sg9
I0
sg10
I1387399
sg11
F0.0
sg12
F1.3689593516437988
sg13
I0
sg14
I2672
sg15
I0
sg16
I63
sg17
I3083
sg18
I0
sg19
I1000000
sg20
I360528
sg21
I67
sg22
I1276829
sg23
I14
sg24
I1747927
sg25
I360528
sg26
I273746
sg27
I2664228
sg28
I0
ssS'LAVORATO JOHN J'
p113
(dp114
g3
I7259
sg4
F23.57878852184575
sg5
I0
sg6
I49537
sg7
I0
sg8
F0.09538805363673304
sg9
I0
sg10
I2035380
sg11
F12.258007946051732
sg12
F0.8635250166649882
sg13
I0
sg14
I3962
sg15
I0
sg16
I2585
sg17
I1552
sg18
I0
sg19
I8000000
sg20
I5167144
sg21
I528
sg22
I8340840
sg23
I411
sg24
I7202524
sg25
I1008149
sg26
I339288
sg27
I10425757
sg28
I4158995
ssS'BERBERIAN DAVID'
p115
(dp116
g3
I0
sg4
F0.0
sg5
I0
sg6
I11892
sg7
I0
sg8
I0
sg9
I0
sg10
I0
sg11
F7.500143132854992
sg12
F11.513496043069138
sg13
I0
sg14
I0
sg15
I0
sg16
I0
sg17
I0
sg18
I0
sg19
I0
sg20
I2493616
sg21
I0
sg22
I216582
sg23
I0
sg24
I2493616
sg25
I869220
sg26
I216582
sg27
I228474
sg28
I1624396
ssS'DETMERING TIMOTHY J'
p117
(dp118
g3
I0
sg4
F2.019002375296912
sg5
I875307
sg6
I52255
sg7
I0
sg8
I0
sg9
I-775241
sg10
I415657
sg11
F9.63356294536817
sg12
F3.838364448912591
sg13
I-315068
sg14
I0
sg15
I0
sg16
I0
sg17
I1105
sg18
I0
sg19
I425000
sg20
I2027865
sg21
I0
sg22
I636605
sg23
I0
sg24
I2443522
sg25
I315068
sg26
I210500
sg27
I1204583
sg28
I2027865
ssS'WAKEHAM JOHN'
p119
(dp120
g3
I0
sg4
I0
sg5
I0
sg6
I103773
sg7
I0
sg8
I0
sg9
I0
sg10
I0
sg11
I0
sg12
I0
sg13
I0
sg14
I0
sg15
I0
sg16
I0
sg17
I0
sg18
I109298
sg19
I0
sg20
I0
sg21
I0
sg22
I0
sg23
I0
sg24
I0
sg25
I0
sg26
I0
sg27
I213071
sg28
I0
ssS'POWERS WILLIAM'
p121
(dp122
g3
I653
sg4
I0
sg5
I0
sg6
I0
sg7
I0
sg8
F0.0
sg9
I-17500
sg10
I0
sg11
I0
sg12
I0
sg13
I0
sg14
I12
sg15
I0
sg16
I26
sg17
I0
sg18
I17500
sg19
I0
sg20
I0
sg21
I0
sg22
I0
sg23
I0
sg24
I0
sg25
I0
sg26
I0
sg27
I0
sg28
I0
ssS'GOLD JOSEPH'
p123
(dp124
g3
I0
sg4
F2.748460861917326
sg5
I0
sg6
I0
sg7
I0
sg8
I0
sg9
I0
sg10
I304805
sg11
F1.5996591908531224
sg12
F0.6418611114730035
sg13
I0
sg14
I0
sg15
I0
sg16
I0
sg17
I819288
sg18
I0
sg19
I750000
sg20
I877611
sg21
I0
sg22
I1842168
sg23
I0
sg24
I1182416
sg25
I441096
sg26
I272880
sg27
I2146973
sg28
I436515
ssS'BANNANTINE JAMES M'
p125
(dp126
g3
I566
sg4
F0.0
sg5
I0
sg6
I56301
sg7
I0
sg8
F0.06554621848739496
sg9
I-5104
sg10
I0
sg11
F8482.509433962265
sg12
F6.061834682080925
sg13
I-560222
sg14
I465
sg15
I0
sg16
I29
sg17
I864523
sg18
I0
sg19
I0
sg20
I5243487
sg21
I39
sg22
I865000
sg23
I0
sg24
I5243487
sg25
I1757552
sg26
I477
sg27
I916197
sg28
I4046157
ssS'DUNCAN JOHN H'
p127
(dp128
g3
I0
sg4
I0
sg5
I0
sg6
I0
sg7
I0
sg8
I0
sg9
I-25000
sg10
I0
sg11
I0
sg12
I0
sg13
I0
sg14
I0
sg15
I0
sg16
I0
sg17
I0
sg18
I102492
sg19
I0
sg20
I371750
sg21
I0
sg22
I0
sg23
I0
sg24
I371750
sg25
I0
sg26
I0
sg27
I77492
sg28
I371750
ssS'SHAPIRO RICHARD S'
p129
(dp130
g3
I15149
sg4
F2.4156743819590005
sg5
I0
sg6
I137767
sg7
I0
sg8
F0.00849425568320704
sg9
I0
sg10
I0
sg11
F2.258978875856635
sg12
F1.0730826142309964
sg13
I0
sg14
I4527
sg15
I0
sg16
I1215
sg17
I705
sg18
I0
sg19
I650000
sg20
I987001
sg21
I74
sg22
I919781
sg23
I65
sg24
I987001
sg25
I379164
sg26
I269076
sg27
I1057548
sg28
I607837
ssS'SHERRIFF JOHN R'
p131
(dp132
g3
I3187
sg4
F3.4982974952189934
sg5
I0
sg6
I0
sg7
I0
sg8
F0.01555352241537054
sg9
I0
sg10
I554422
sg11
F4.280885302486124
sg12
F0.9741965413071686
sg13
I0
sg14
I2103
sg15
I0
sg16
I92
sg17
I1852186
sg18
I0
sg19
I1500000
sg20
I3128982
sg21
I28
sg22
I3780966
sg23
I23
sg24
I3683404
sg25
I1293424
sg26
I428780
sg27
I4335388
sg28
I1835558
ssS'SHELBY REX'
p133
(dp134
g3
I225
sg4
F0.9440909348388437
sg5
I0
sg6
I22884
sg7
I1
sg8
F0.10227272727272728
sg9
I-4167
sg10
I0
sg11
F7.667887690942392
sg12
F1.2561234112175896
sg13
I0
sg14
I91
sg15
I0
sg16
I39
sg17
I1573324
sg18
I0
sg19
I200000
sg20
I2493616
sg21
I13
sg22
I1985168
sg23
I14
sg24
I2493616
sg25
I869220
sg26
I211844
sg27
I2003885
sg28
I1624396
ssS'LEMAISTRE CHARLES'
p135
(dp136
g3
I0
sg4
I0
sg5
I0
sg6
I0
sg7
I0
sg8
I0
sg9
I-25000
sg10
I0
sg11
I0
sg12
I0
sg13
I0
sg14
I0
sg15
I0
sg16
I0
sg17
I0
sg18
I112492
sg19
I0
sg20
I412878
sg21
I0
sg22
I0
sg23
I0
sg24
I412878
sg25
I0
sg26
I0
sg27
I87492
sg28
I412878
ssS'DEFFNER JOSEPH M'
p137
(dp138
g3
I714
sg4
F2.910911551952494
sg5
I0
sg6
I41626
sg7
I0
sg8
F0.15101522842639595
sg9
I0
sg10
I335349
sg11
F0.08430970158305073
sg12
F0.594656079184873
sg13
I0
sg14
I552
sg15
I0
sg16
I74
sg17
I25553
sg18
I0
sg19
I600000
sg20
I159211
sg21
I115
sg22
I831674
sg23
I4
sg24
I494560
sg25
I141833
sg26
I206121
sg27
I1208649
sg28
I17378
ssS'KISHKILL JOSEPH G'
p139
(dp140
g3
I0
sg4
F0.0
sg5
I0
sg6
I116335
sg7
I0
sg8
I0
sg9
I-51042
sg10
I0
sg11
F0.0
sg12
F1.6171687750057457
sg13
I0
sg14
I0
sg15
I0
sg16
I0
sg17
I465357
sg18
I0
sg19
I0
sg20
I1034346
sg21
I0
sg22
I639603
sg23
I0
sg24
I1034346
sg25
I1034346
sg26
I174246
sg27
I704896
sg28
I0
ssS'WHALLEY LAWRENCE G'
p141
(dp142
g3
I6019
sg4
F5.878157550297435
sg5
I0
sg6
I57838
sg7
I0
sg8
F0.03193916349809886
sg9
I0
sg10
I808346
sg11
F6.432585370441489
sg12
F1.8070790446530005
sg13
I0
sg14
I3920
sg15
I0
sg16
I556
sg17
I301026
sg18
I0
sg19
I3000000
sg20
I6079137
sg21
I186
sg22
I3811390
sg23
I24
sg24
I6887483
sg25
I2796177
sg26
I510364
sg27
I4677574
sg28
I3282960
ssS'MCCONNELL MICHAEL S'
p143
(dp144
g3
I3329
sg4
F3.013384907872605
sg5
I0
sg6
I81364
sg7
I0
sg8
F0.047109207708779445
sg9
I0
sg10
I554422
sg11
F4.4461398539330155
sg12
F2.4943749155623243
sg13
I0
sg14
I2189
sg15
I0
sg16
I2742
sg17
I540
sg18
I0
sg19
I1100000
sg20
I3101279
sg21
I92
sg22
I1465578
sg23
I194
sg24
I3655701
sg25
I1478269
sg26
I365038
sg27
I2101364
sg28
I1623010
ssS'PIRO JIM'
p145
(dp146
g3
I58
sg4
I0
sg5
I0
sg6
I0
sg7
I0
sg8
F0.013513513513513514
sg9
I0
sg10
I0
sg11
I0
sg12
I0
sg13
I0
sg14
I3
sg15
I0
sg16
I16
sg17
I0
sg18
I0
sg19
I0
sg20
I47304
sg21
I0
sg22
I0
sg23
I1
sg24
I47304
sg25
I47304
sg26
I0
sg27
I0
sg28
I0
ssS'DELAINEY DAVID W'
p147
(dp148
g3
I3093
sg4
F8.215509238340138
sg5
I0
sg6
I86174
sg7
I1
sg8
F0.10954235637779941
sg9
I0
sg10
I1294981
sg11
F6.274220005860396
sg12
F1.4581225511045424
sg13
I0
sg14
I2097
sg15
I0
sg16
I3069
sg17
I1661
sg18
I0
sg19
I3000000
sg20
I3614261
sg21
I66
sg22
I3366824
sg23
I609
sg24
I4909242
sg25
I1323148
sg26
I365163
sg27
I4747979
sg28
I2291113
ssS'SULLIVAN-SHAKLOVITZ COLLEEN'
p149
(dp150
g3
I0
sg4
F0.6143298582741017
sg5
I181993
sg6
I0
sg7
I0
sg8
I0
sg9
I0
sg10
I554422
sg11
F8.369476406661793
sg12
F7.289836883559429
sg13
I0
sg14
I0
sg15
I0
sg16
I0
sg17
I162
sg18
I0
sg19
I100000
sg20
I1362375
sg21
I0
sg22
I262941
sg23
I0
sg24
I1916797
sg25
I0
sg26
I162779
sg27
I999356
sg28
I1362375
ssS'WROBEL BRUCE'
p151
(dp152
g3
I0
sg4
I0
sg5
I0
sg6
I0
sg7
I0
sg8
I0
sg9
I0
sg10
I0
sg11
I0
sg12
I0
sg13
I0
sg14
I0
sg15
I0
sg16
I0
sg17
I0
sg18
I0
sg19
I0
sg20
I139130
sg21
I0
sg22
I0
sg23
I0
sg24
I139130
sg25
I0
sg26
I0
sg27
I0
sg28
I139130
ssS'LINDHOLM TOD A'
p153
(dp154
g3
I0
sg4
F0.8458197473536415
sg5
I204075
sg6
I57727
sg7
I0
sg8
I0
sg9
I0
sg10
I175000
sg11
F10.781499384666134
sg12
F7.377143937306274
sg13
I0
sg14
I0
sg15
I0
sg16
I0
sg17
I2630
sg18
I0
sg19
I200000
sg20
I3064208
sg21
I0
sg22
I439087
sg23
I0
sg24
I3239208
sg25
I514847
sg26
I236457
sg27
I875889
sg28
I2549361
ssS'MEYER JEROME J'
p155
(dp156
g3
I0
sg4
I0
sg5
I0
sg6
I2151
sg7
I0
sg8
I0
sg9
I-38346
sg10
I0
sg11
I0
sg12
I0
sg13
I0
sg14
I0
sg15
I0
sg16
I0
sg17
I0
sg18
I38346
sg19
I0
sg20
I0
sg21
I0
sg22
I0
sg23
I0
sg24
I0
sg25
I0
sg26
I0
sg27
I2151
sg28
I0
ssS'LAY KENNETH L'
p157
(dp158
g3
I4273
sg4
F6.527896031132468
sg5
I202911
sg6
I99832
sg7
I1
sg8
F0.03225806451612903
sg9
I-300000
sg10
I3600000
sg11
F32.031811369916284
sg12
F2.859696995179592
sg13
I0
sg14
I2411
sg15
I81525000
sg16
I36
sg17
I10359729
sg18
I0
sg19
I7000000
sg20
I49110078
sg21
I123
sg22
I18432050
sg23
I16
sg24
I52710078
sg25
I14761694
sg26
I1072321
sg27
I103559793
sg28
I34348384
ssS'BUTTS ROBERT H'
p159
(dp160
g3
I0
sg4
F2.8678933602532926
sg5
I0
sg6
I9410
sg7
I0
sg8
I0
sg9
I-75000
sg10
I175000
sg11
F0.0
sg12
F0.5099236601811091
sg13
I0
sg14
I0
sg15
I0
sg16
I0
sg17
I150656
sg18
I0
sg19
I750000
sg20
I417619
sg21
I0
sg22
I1162172
sg23
I0
sg24
I592619
sg25
I417619
sg26
I261516
sg27
I1271582
sg28
I0
ssS'OLSON CINDY K'
p161
(dp162
g3
I1184
sg4
F2.279094925823057
sg5
I77716
sg6
I63791
sg7
I0
sg8
F0.02831715210355987
sg9
I0
sg10
I100000
sg11
F4.9746078437330965
sg12
F2.5061460117587147
sg13
I0
sg14
I856
sg15
I0
sg16
I52
sg17
I972
sg18
I0
sg19
I750000
sg20
I2606763
sg21
I20
sg22
I1080050
sg23
I15
sg24
I2706763
sg25
I969729
sg26
I329078
sg27
I1321557
sg28
I1637034
ssS'MCDONALD REBECCA'
p163
(dp164
g3
I894
sg4
I0
sg5
I0
sg6
I0
sg7
I0
sg8
F0.06063947078280044
sg9
I0
sg10
I0
sg11
I0
sg12
I0
sg13
I0
sg14
I720
sg15
I0
sg16
I13
sg17
I0
sg18
I0
sg19
I0
sg20
I1691366
sg21
I54
sg22
I0
sg23
I1
sg24
I1691366
sg25
I934065
sg26
I0
sg27
I0
sg28
I757301
ssS'CUMBERLAND MICHAEL S'
p165
(dp166
g3
I0
sg4
F1.7577163748857485
sg5
I0
sg6
I22344
sg7
I0
sg8
I0
sg9
I0
sg10
I275000
sg11
F0.0
sg12
F0.9458062090197645
sg13
I0
sg14
I0
sg15
I0
sg16
I0
sg17
I713
sg18
I0
sg19
I325000
sg20
I207940
sg21
I0
sg22
I510612
sg23
I0
sg24
I482940
sg25
I207940
sg26
I184899
sg27
I807956
sg28
I0
ssS'GAHN ROBERT S'
p167
(dp168
g3
I0
sg4
F2.6554622724053165
sg5
I73122
sg6
I50080
sg7
I0
sg8
I0
sg9
I-1042
sg10
I0
sg11
F0.43350797883421527
sg12
F0.4092969778719851
sg13
I0
sg14
I0
sg15
I0
sg16
I0
sg17
I76547
sg18
I0
sg19
I509870
sg20
I318607
sg21
I0
sg22
I778425
sg23
I0
sg24
I318607
sg25
I235370
sg26
I192008
sg27
I900585
sg28
I83237
ssS'MCCLELLAN GEORGE'
p169
(dp170
g3
I1744
sg4
F3.4166878627858153
sg5
I0
sg6
I228763
sg7
I0
sg8
F0.029001673173452314
sg9
I-125000
sg10
I0
sg11
F1.9238420275385042
sg12
F0.7801325102880659
sg13
I0
sg14
I1469
sg15
I0
sg16
I49
sg17
I51587
sg18
I0
sg19
I900000
sg20
I947861
sg21
I52
sg22
I1215000
sg23
I0
sg24
I947861
sg25
I441096
sg26
I263413
sg27
I1318763
sg28
I506765
ssS'HERMANN ROBERT J'
p171
(dp172
g3
I0
sg4
F2.665011821231007
sg5
I0
sg6
I48357
sg7
I0
sg8
I0
sg9
I-280000
sg10
I150000
sg11
F0.7138424521154483
sg12
F0.5932344478734018
sg13
I0
sg14
I0
sg15
I0
sg16
I0
sg17
I416441
sg18
I0
sg19
I700000
sg20
I668132
sg21
I0
sg22
I1379104
sg23
I0
sg24
I818132
sg25
I480632
sg26
I262663
sg27
I1297461
sg28
I187500
ssS'SCRIMSHAW MATTHEW'
p173
(dp174
g3
I0
sg4
I0
sg5
I0
sg6
I0
sg7
I0
sg8
I0
sg9
I0
sg10
I0
sg11
I0
sg12
I0
sg13
I0
sg14
I0
sg15
I0
sg16
I0
sg17
I0
sg18
I0
sg19
I0
sg20
I759557
sg21
I0
sg22
I0
sg23
I0
sg24
I759557
sg25
I0
sg26
I0
sg27
I0
sg28
I759557
ssS'GATHMANN WILLIAM D'
p175
(dp176
g3
I0
sg4
I0
sg5
I0
sg6
I0
sg7
I0
sg8
I0
sg9
I0
sg10
I0
sg11
I0
sg12
I0
sg13
I-72419
sg14
I0
sg15
I0
sg16
I0
sg17
I0
sg18
I0
sg19
I0
sg20
I1945360
sg21
I0
sg22
I0
sg23
I0
sg24
I1945360
sg25
I264013
sg26
I0
sg27
I0
sg28
I1753766
ssS'HAEDICKE MARK E'
p177
(dp178
g3
I4009
sg4
F3.073838957567658
sg5
I2157527
sg6
I76169
sg7
I0
sg8
F0.04050420168067227
sg9
I-934484
sg10
I983346
sg11
F1.6271299699298363
sg12
F1.1331633795473157
sg13
I-329825
sg14
I1847
sg15
I0
sg16
I1941
sg17
I52382
sg18
I0
sg19
I1150000
sg20
I803094
sg21
I180
sg22
I1576507
sg23
I61
sg24
I1786440
sg25
I524169
sg26
I374125
sg27
I3859065
sg28
I608750
ssS'BOWEN JR RAYMOND M'
p179
(dp180
g3
I1858
sg4
F4.845639462887786
sg5
I0
sg6
I65907
sg7
I1
sg8
F0.08222811671087533
sg9
I-833
sg10
I974293
sg11
F0.0
sg12
F0.7522582813874429
sg13
I0
sg14
I1593
sg15
I0
sg16
I27
sg17
I1621
sg18
I0
sg19
I1350000
sg20
I252055
sg21
I140
sg22
I1630222
sg23
I15
sg24
I1226348
sg25
I252055
sg26
I278601
sg27
I2669589
sg28
I0
ssS'GILLIS JOHN'
p181
(dp182
g3
I0
sg4
I0
sg5
I0
sg6
I0
sg7
I0
sg8
I0
sg9
I0
sg10
I0
sg11
I0
sg12
I0
sg13
I0
sg14
I0
sg15
I0
sg16
I0
sg17
I0
sg18
I0
sg19
I0
sg20
I85641
sg21
I0
sg22
I0
sg23
I0
sg24
I85641
sg25
I75838
sg26
I0
sg27
I0
sg28
I9803
ssS'FITZGERALD JAY L'
p183
(dp184
g3
I936
sg4
F1.7574074724965731
sg5
I0
sg6
I23870
sg7
I0
sg8
F0.009453781512605041
sg9
I0
sg10
I556416
sg11
F3.336367790235844
sg12
F2.609307057158708
sg13
I0
sg14
I723
sg15
I0
sg16
I16
sg17
I285414
sg18
I0
sg19
I350000
sg20
I1621236
sg21
I1
sg22
I834571
sg23
I8
sg24
I2177652
sg25
I956775
sg26
I199157
sg27
I1414857
sg28
I664461
ssS'MORAN MICHAEL P'
p185
(dp186
g3
I672
sg4
I0
sg5
I0
sg6
I0
sg7
I0
sg8
F0.0
sg9
I0
sg10
I0
sg11
I0
sg12
I0
sg13
I0
sg14
I127
sg15
I0
sg16
I19
sg17
I0
sg18
I0
sg19
I0
sg20
I221141
sg21
I0
sg22
I0
sg23
I0
sg24
I221141
sg25
I161602
sg26
I0
sg27
I0
sg28
I59539
ssS'REDMOND BRIAN L'
p187
(dp188
g3
I1671
sg4
F0.0
sg5
I0
sg6
I14689
sg7
I0
sg8
F0.13372093023255813
sg9
I0
sg10
I0
sg11
F77.54067534076827
sg12
F81.47794299876084
sg13
I0
sg14
I1063
sg15
I0
sg16
I221
sg17
I0
sg18
I0
sg19
I0
sg20
I7890324
sg21
I204
sg22
I96840
sg23
I49
sg24
I7890324
sg25
I381285
sg26
I96840
sg27
I111529
sg28
I7509039
ssS'BAZELIDES PHILIP J'
p189
(dp190
g3
I0
sg4
F0.0
sg5
I684694
sg6
I0
sg7
I0
sg8
I0
sg9
I0
sg10
I93750
sg11
F19.793127768566407
sg12
F20.728969788963422
sg13
I0
sg14
I0
sg15
I0
sg16
I0
sg17
I874
sg18
I0
sg19
I0
sg20
I1599641
sg21
I0
sg22
I81692
sg23
I0
sg24
I1693391
sg25
I0
sg26
I80818
sg27
I860136
sg28
I1599641
ssS'BELDEN TIMOTHY N'
p191
(dp192
g3
I7991
sg4
F24.532820246823583
sg5
I2144013
sg6
I17355
sg7
I1
sg8
F0.03964601769911504
sg9
I-2334434
sg10
I0
sg11
F4.453927354800723
sg12
F0.19572942762043993
sg13
I0
sg14
I5521
sg15
I0
sg16
I484
sg17
I210698
sg18
I0
sg19
I5249999
sg20
I1110705
sg21
I228
sg22
I5674696
sg23
I108
sg24
I1110705
sg25
I157569
sg26
I213999
sg27
I5501630
sg28
I953136
ssS'DURAN WILLIAM D'
p193
(dp194
g3
I904
sg4
F3.559698517266911
sg5
I0
sg6
I25785
sg7
I0
sg8
F0.11899563318777293
sg9
I0
sg10
I1105218
sg11
F6.89095456875439
sg12
F2.8538316047637853
sg13
I0
sg14
I599
sg15
I0
sg16
I12
sg17
I1568
sg18
I0
sg19
I750000
sg20
I1640910
sg21
I106
sg22
I962260
sg23
I3
sg24
I2746128
sg25
I189041
sg26
I210692
sg27
I2093263
sg28
I1451869
ssS'THORN TERENCE H'
p195
(dp196
g3
I266
sg4
F0.0
sg5
I16586
sg6
I46145
sg7
I0
sg8
F0.0
sg9
I0
sg10
I200000
sg11
F20.04779979558113
sg12
F7.734894145720355
sg13
I0
sg14
I73
sg15
I0
sg16
I41
sg17
I426629
sg18
I0
sg19
I0
sg20
I4817796
sg21
I0
sg22
I648722
sg23
I0
sg24
I5017796
sg25
I365320
sg26
I222093
sg27
I911453
sg28
I4452476
ssS'FASTOW ANDREW S'
p197
(dp198
g3
I0
sg4
F2.949865894558178
sg5
I0
sg6
I55921
sg7
I1
sg8
I0
sg9
I-1386055
sg10
I1736055
sg11
F0.0
sg12
F1.7493476737744542
sg13
I0
sg14
I0
sg15
I0
sg16
I0
sg17
I277464
sg18
I0
sg19
I1300000
sg20
I1794412
sg21
I0
sg22
I2018162
sg23
I0
sg24
I3530467
sg25
I1794412
sg26
I440698
sg27
I2424083
sg28
I0
ssS'FOY JOE'
p199
(dp200
g3
I57
sg4
I0
sg5
I181755
sg6
I0
sg7
I0
sg8
F0.0
sg9
I0
sg10
I0
sg11
I0
sg12
I0
sg13
I0
sg14
I2
sg15
I0
sg16
I13
sg17
I0
sg18
I0
sg19
I0
sg20
I343434
sg21
I0
sg22
I0
sg23
I0
sg24
I343434
sg25
I0
sg26
I0
sg27
I181755
sg28
I343434
ssS'CALGER CHRISTOPHER F'
p201
(dp202
g3
I2598
sg4
F5.204234998272194
sg5
I0
sg6
I35818
sg7
I1
sg8
F0.08169219547775347
sg9
I-262500
sg10
I375304
sg11
F0.0
sg12
F0.33631140255253494
sg13
I0
sg14
I2188
sg15
I0
sg16
I144
sg17
I486
sg18
I0
sg19
I1250000
sg20
I126027
sg21
I199
sg22
I1490675
sg23
I25
sg24
I501331
sg25
I126027
sg26
I240189
sg27
I1639297
sg28
I0
ssS'RICE KENNETH D'
p203
(dp204
g3
I905
sg4
F4.160366682832663
sg5
I0
sg6
I46950
sg7
I1
sg8
F0.04983748645720477
sg9
I-3504386
sg10
I1617011
sg11
F47.057729248090986
sg12
F10.300493503448129
sg13
I0
sg14
I864
sg15
I0
sg16
I18
sg17
I174839
sg18
I0
sg19
I1750000
sg20
I22542539
sg21
I42
sg22
I2345475
sg23
I4
sg24
I24159550
sg25
I2748364
sg26
I420636
sg27
I505050
sg28
I19794175
ssS'KAMINSKI WINCENTY J'
p205
(dp206
g3
I4607
sg4
F1.4540114357999425
sg5
I0
sg6
I83585
sg7
I0
sg8
F0.011172595520421607
sg9
I0
sg10
I323466
sg11
F3.089810651360773
sg12
F1.9116804213189755
sg13
I0
sg14
I583
sg15
I0
sg16
I14368
sg17
I4669
sg18
I0
sg19
I400000
sg20
I976037
sg21
I41
sg22
I679770
sg23
I171
sg24
I1299503
sg25
I126027
sg26
I275101
sg27
I1086821
sg28
I850010
ssS'COX DAVID'
p207
(dp208
g3
I102
sg4
F2.5454360331924857
sg5
I0
sg6
I27861
sg7
I0
sg8
F0.02962962962962963
sg9
I-41250
sg10
I0
sg11
F0.3740231889222624
sg12
F0.44460082778516335
sg13
I0
sg14
I71
sg15
I0
sg16
I33
sg17
I494
sg18
I0
sg19
I800000
sg20
I495633
sg21
I0
sg22
I1114782
sg23
I4
sg24
I495633
sg25
I378082
sg26
I314288
sg27
I1101393
sg28
I117551
ssS'OVERDYKE JR JERE C'
p209
(dp210
g3
I0
sg4
F0.0
sg5
I0
sg6
I18834
sg7
I0
sg8
I0
sg9
I0
sg10
I135836
sg11
F55.472114260435426
sg12
F78.25551688972529
sg13
I0
sg14
I0
sg15
I0
sg16
I0
sg17
I176
sg18
I0
sg19
I0
sg20
I7307594
sg21
I0
sg22
I95117
sg23
I0
sg24
I7443430
sg25
I2041016
sg26
I94941
sg27
I249787
sg28
I5266578
ssS'PEREIRA PAULO V. FERRAZ'
p211
(dp212
g3
I0
sg4
I0
sg5
I0
sg6
I27942
sg7
I0
sg8
I0
sg9
I-101250
sg10
I0
sg11
I0
sg12
I0
sg13
I0
sg14
I0
sg15
I0
sg16
I0
sg17
I0
sg18
I101250
sg19
I0
sg20
I0
sg21
I0
sg22
I0
sg23
I0
sg24
I0
sg25
I0
sg26
I0
sg27
I27942
sg28
I0
ssS'STABLER FRANK'
p213
(dp214
g3
I0
sg4
F2.0876652387036434
sg5
I0
sg6
I16514
sg7
I0
sg8
I0
sg9
I0
sg10
I0
sg11
F0.0
sg12
F0.4670925625220775
sg13
I0
sg14
I0
sg15
I0
sg16
I0
sg17
I356071
sg18
I0
sg19
I500000
sg20
I511734
sg21
I0
sg22
I1095573
sg23
I0
sg24
I511734
sg25
I511734
sg26
I239502
sg27
I1112087
sg28
I0
ssS'SKILLING JEFFREY K'
p215
(dp216
g3
I3627
sg4
F5.03933380007163
sg5
I0
sg6
I29336
sg7
I1
sg8
F0.03159303882195449
sg9
I0
sg10
I1920000
sg11
F17.32270993774623
sg12
F4.160417502056917
sg13
I0
sg14
I2042
sg15
I0
sg16
I108
sg17
I22122
sg18
I0
sg19
I5600000
sg20
I26093672
sg21
I88
sg22
I6733380
sg23
I30
sg24
I28013672
sg25
I6843672
sg26
I1111258
sg27
I8682716
sg28
I19250000
ssS'BLAKE JR. NORMAN P'
p217
(dp218
g3
I0
sg4
I0
sg5
I0
sg6
I1279
sg7
I0
sg8
I0
sg9
I-113784
sg10
I0
sg11
I0
sg12
I0
sg13
I0
sg14
I0
sg15
I0
sg16
I0
sg17
I0
sg18
I113784
sg19
I0
sg20
I0
sg21
I0
sg22
I0
sg23
I0
sg24
I0
sg25
I0
sg26
I0
sg27
I1279
sg28
I0
ssS'SHERRICK JEFFREY B'
p219
(dp220
g3
I613
sg4
I0
sg5
I0
sg6
I0
sg7
I0
sg8
F0.08934169278996865
sg9
I0
sg10
I0
sg11
I0
sg12
I0
sg13
I0
sg14
I583
sg15
I0
sg16
I25
sg17
I0
sg18
I0
sg19
I0
sg20
I1832468
sg21
I39
sg22
I0
sg23
I18
sg24
I1832468
sg25
I405999
sg26
I0
sg27
I0
sg28
I1426469
ssS'PRENTICE JAMES'
p221
(dp222
g3
I0
sg4
I0
sg5
I564348
sg6
I0
sg7
I0
sg8
I0
sg9
I0
sg10
I0
sg11
I0
sg12
I0
sg13
I0
sg14
I0
sg15
I0
sg16
I0
sg17
I0
sg18
I0
sg19
I0
sg20
I1095040
sg21
I0
sg22
I0
sg23
I0
sg24
I1095040
sg25
I208809
sg26
I0
sg27
I564348
sg28
I886231
ssS'GRAY RODNEY'
p223
(dp224
g3
I0
sg4
F0.0
sg5
I93585
sg6
I0
sg7
I0
sg8
I0
sg9
I0
sg10
I365625
sg11
F0.0
sg12
F0.5318584096542575
sg13
I0
sg14
I0
sg15
I0
sg16
I0
sg17
I680833
sg18
I0
sg19
I0
sg20
I0
sg21
I0
sg22
I687448
sg23
I0
sg24
I365625
sg25
I0
sg26
I6615
sg27
I1146658
sg28
I0
ssS'PICKERING MARK R'
p225
(dp226
g3
I898
sg4
F0.45798939601885086
sg5
I0
sg6
I31653
sg7
I0
sg8
F0.007253886010362694
sg9
I0
sg10
I0
sg11
F0.04396392875516956
sg12
F0.030153805559365764
sg13
I0
sg14
I728
sg15
I400000
sg16
I67
sg17
I0
sg18
I0
sg19
I300000
sg20
I28798
sg21
I7
sg22
I955037
sg23
I0
sg24
I28798
sg25
I0
sg26
I655037
sg27
I1386690
sg28
I28798
ssS'NOLES JAMES L'
p227
(dp228
g3
I0
sg4
I0
sg5
I774401
sg6
I0
sg7
I0
sg8
I0
sg9
I0
sg10
I0
sg11
I0
sg12
I0
sg13
I-94556
sg14
I0
sg15
I0
sg16
I0
sg17
I0
sg18
I0
sg19
I0
sg20
I368705
sg21
I0
sg22
I0
sg23
I0
sg24
I368705
sg25
I463261
sg26
I0
sg27
I774401
sg28
I0
ssS'KEAN STEVEN J'
p229
(dp230
g3
I12754
sg4
F2.473178380463869
sg5
I0
sg6
I41953
sg7
I0
sg8
F0.02700763593501768
sg9
I0
sg10
I300000
sg11
F5.000885397860206
sg12
F4.591480034064496
sg13
I0
sg14
I3639
sg15
I0
sg16
I6759
sg17
I1231
sg18
I0
sg19
I1000000
sg20
I6153642
sg21
I140
sg22
I1405569
sg23
I387
sg24
I6453642
sg25
I4131594
sg26
I404338
sg27
I1747522
sg28
I2022048
ssS'FOWLER PEGGY'
p231
(dp232
g3
I517
sg4
I0
sg5
I0
sg6
I0
sg7
I0
sg8
F0.0
sg9
I0
sg10
I0
sg11
I0
sg12
I0
sg13
I0
sg14
I10
sg15
I0
sg16
I36
sg17
I0
sg18
I0
sg19
I0
sg20
I1884748
sg21
I0
sg22
I0
sg23
I0
sg24
I1884748
sg25
I560170
sg26
I0
sg27
I0
sg28
I1324578
ssS'WASAFF GEORGE'
p233
(dp234
g3
I400
sg4
F1.2500192310650933
sg5
I831299
sg6
I0
sg7
I0
sg8
F0.06744186046511629
sg9
I-583325
sg10
I200000
sg11
F6.4164833305127775
sg12
F3.847793649954555
sg13
I0
sg14
I337
sg15
I0
sg16
I30
sg17
I1425
sg18
I0
sg19
I325000
sg20
I2056427
sg21
I22
sg22
I586421
sg23
I7
sg24
I2256427
sg25
I388167
sg26
I259996
sg27
I1034395
sg28
I1668260
ssS'WHITE JR THOMAS E'
p235
(dp236
g3
I0
sg4
F1.417130908254945
sg5
I0
sg6
I81353
sg7
I0
sg8
I0
sg9
I0
sg10
I0
sg11
F4.084640505380373
sg12
F8.17273284598107
sg13
I0
sg14
I0
sg15
I0
sg16
I0
sg17
I1085463
sg18
I0
sg19
I450000
sg20
I15144123
sg21
I0
sg22
I1853006
sg23
I0
sg24
I15144123
sg25
I13847074
sg26
I317543
sg27
I1934359
sg28
I1297049
ssS'CHRISTODOULOU DIOMEDES'
p237
(dp238
g3
I0
sg4
I0
sg5
I0
sg6
I0
sg7
I0
sg8
I0
sg9
I0
sg10
I0
sg11
I0
sg12
I0
sg13
I0
sg14
I0
sg15
I0
sg16
I0
sg17
I0
sg18
I0
sg19
I0
sg20
I6077885
sg21
I0
sg22
I0
sg23
I0
sg24
I6077885
sg25
I950730
sg26
I0
sg27
I0
sg28
I5127155
ssS'ALLEN PHILLIP K'
p239
(dp240
g3
I2902
sg4
F20.672922185635414
sg5
I2869717
sg6
I13868
sg7
I0
sg8
F0.0219737100255052
sg9
I-3081055
sg10
I304805
sg11
F8.563991978411032
sg12
F0.4647695384188689
sg13
I-126027
sg14
I1407
sg15
I0
sg16
I2195
sg17
I152
sg18
I0
sg19
I4175000
sg20
I1729541
sg21
I47
sg22
I4377107
sg23
I65
sg24
I2034346
sg25
I126027
sg26
I201955
sg27
I4484442
sg28
I1729541
ssS'SHARP VICTORIA T'
p241
(dp242
g3
I3136
sg4
F2.417931379107461
sg5
I187469
sg6
I116337
sg7
I0
sg8
F0.009168704156479218
sg9
I0
sg10
I422158
sg11
F1.1326920441997856
sg12
F1.0772996671553718
sg13
I0
sg14
I2477
sg15
I0
sg16
I136
sg17
I2401
sg18
I0
sg19
I600000
sg20
I494136
sg21
I24
sg22
I850547
sg23
I6
sg24
I916294
sg25
I213063
sg26
I248146
sg27
I1576511
sg28
I281073
ssS'JAEDICKE ROBERT'
p243
(dp244
g3
I0
sg4
I0
sg5
I0
sg6
I0
sg7
I0
sg8
I0
sg9
I-25000
sg10
I0
sg11
I0
sg12
I0
sg13
I-44093
sg14
I0
sg15
I0
sg16
I0
sg17
I0
sg18
I108750
sg19
I0
sg20
I431750
sg21
I0
sg22
I0
sg23
I0
sg24
I431750
sg25
I44093
sg26
I0
sg27
I83750
sg28
I431750
ssS'WINOKUR JR. HERBERT S'
p245
(dp246
g3
I0
sg4
I0
sg5
I0
sg6
I1413
sg7
I0
sg8
I0
sg9
I-25000
sg10
I0
sg11
I0
sg12
I0
sg13
I0
sg14
I0
sg15
I0
sg16
I0
sg17
I0
sg18
I108579
sg19
I0
sg20
I0
sg21
I0
sg22
I0
sg23
I0
sg24
I0
sg25
I0
sg26
I0
sg27
I84992
sg28
I0
ssS'BROWN MICHAEL'
p247
(dp248
g3
I1486
sg4
I0
sg5
I0
sg6
I49288
sg7
I0
sg8
F0.0091683038637852
sg9
I0
sg10
I0
sg11
I0
sg12
I0
sg13
I0
sg14
I761
sg15
I0
sg16
I41
sg17
I0
sg18
I0
sg19
I0
sg20
I0
sg21
I13
sg22
I0
sg23
I1
sg24
I0
sg25
I0
sg26
I0
sg27
I49288
sg28
I0
ssS'BADUM JAMES P'
p249
(dp250
g3
I0
sg4
I0
sg5
I178980
sg6
I3486
sg7
I0
sg8
I0
sg9
I0
sg10
I0
sg11
I0
sg12
I0
sg13
I0
sg14
I0
sg15
I0
sg16
I0
sg17
I0
sg18
I0
sg19
I0
sg20
I257817
sg21
I0
sg22
I0
sg23
I0
sg24
I257817
sg25
I0
sg26
I0
sg27
I182466
sg28
I257817
ssS'HUGHES JAMES A'
p251
(dp252
g3
I719
sg4
I0
sg5
I0
sg6
I0
sg7
I0
sg8
F0.05312084993359894
sg9
I0
sg10
I0
sg11
I0
sg12
I0
sg13
I0
sg14
I589
sg15
I0
sg16
I34
sg17
I0
sg18
I0
sg19
I0
sg20
I1118394
sg21
I35
sg22
I0
sg23
I5
sg24
I1118394
sg25
I363428
sg26
I0
sg27
I0
sg28
I754966
ssS'REYNOLDS LAWRENCE'
p253
(dp254
g3
I0
sg4
F1.3089176559902616
sg5
I51365
sg6
I8409
sg7
I0
sg8
I0
sg9
I-200000
sg10
I156250
sg11
F54.45977041584314
sg12
F11.568580873085287
sg13
I-140264
sg14
I0
sg15
I0
sg16
I0
sg17
I202052
sg18
I0
sg19
I100000
sg20
I4221891
sg21
I0
sg22
I378451
sg23
I0
sg24
I4378141
sg25
I201483
sg26
I76399
sg27
I394475
sg28
I4160672
ssS'DIMICHELE RICHARD G'
p255
(dp256
g3
I0
sg4
F3.8053487982708494
sg5
I0
sg6
I35812
sg7
I0
sg8
I0
sg9
I0
sg10
I694862
sg11
F31.172485044979222
sg12
F5.503982040663777
sg13
I0
sg14
I0
sg15
I0
sg16
I0
sg17
I374689
sg18
I0
sg19
I1000000
sg20
I8317782
sg21
I0
sg22
I1637477
sg23
I0
sg24
I9012644
sg25
I126027
sg26
I262788
sg27
I2368151
sg28
I8191755
ssS'BHATNAGAR SANJAY'
p257
(dp258
g3
I523
sg4
I0
sg5
I0
sg6
I0
sg7
I0
sg8
F0.0018115942028985507
sg9
I0
sg10
I0
sg11
I0
sg12
F0.0
sg13
I15456290
sg14
I463
sg15
I0
sg16
I29
sg17
I137864
sg18
I137864
sg19
I0
sS'total_stock_value'
p259
I0
sg21
I0
sg22
I137864
sg23
I1
sg24
I0
sg25
I-2604490
sg26
I0
sg27
I15456290
sg28
I2604490
ssS'CARTER REBECCA C'
p260
(dp261
g3
I312
sg4
F1.14587351848103
sg5
I0
sg6
I0
sg7
I0
sg8
F0.11009174311926606
sg9
I-159792
sg10
I75000
sg11
F0.0
sg12
F0.13336913553682855
sg13
I-307301
sg14
I196
sg15
I0
sg16
I15
sg17
I540
sg18
I0
sg19
I300000
sg20
I0
sg21
I29
sg22
I562349
sg23
I7
sg24
I75000
sg25
I307301
sg26
I261809
sg27
I477557
sg28
I0
ssS'BUCHANAN HAROLD G'
p262
(dp263
g3
I1088
sg4
F2.015990839337626
sg5
I0
sg6
I600
sg7
I0
sg8
F0.0
sg9
I0
sg10
I304805
sg11
F3.3282557244059885
sg12
F1.7608831443398039
sg13
I0
sg14
I23
sg15
I0
sg16
I125
sg17
I1215
sg18
I0
sg19
I500000
sg20
I1014505
sg21
I0
sg22
I749232
sg23
I0
sg24
I1319310
sg25
I189041
sg26
I248017
sg27
I1054637
sg28
I825464
ssS'YEAP SOON'
p264
(dp265
g3
I0
sg4
I0
sg5
I0
sg6
I55097
sg7
I0
sg8
I0
sg9
I0
sg10
I0
sg11
I0
sg12
I0
sg13
I0
sg14
I0
sg15
I0
sg16
I0
sg17
I0
sg18
I0
sg19
I0
sg20
I192758
sg21
I0
sg22
I0
sg23
I0
sg24
I192758
sg25
I0
sg26
I0
sg27
I55097
sg28
I192758
ssS'MURRAY JULIA H'
p266
(dp267
g3
I2192
sg4
F1.744561330053558
sg5
I0
sg6
I57580
sg7
I0
sg8
F0.00581135449262405
sg9
I0
sg10
I125000
sg11
F1.746646080842972
sg12
F1.1474665429930084
sg13
I0
sg14
I395
sg15
I0
sg16
I45
sg17
I330
sg18
I0
sg19
I400000
sg20
I597461
sg21
I11
sg22
I629614
sg23
I2
sg24
I722461
sg25
I196983
sg26
I229284
sg27
I812194
sg28
I400478
ssS'GARLAND C KEVIN'
p268
(dp269
g3
I209
sg4
F3.6646460814155017
sg5
I0
sg6
I48405
sg7
I0
sg8
F0.14624505928853754
sg9
I0
sg10
I375304
sg11
F2.743078130254456
sg12
F1.1126194476530504
sg13
I0
sg14
I178
sg15
I0
sg16
I44
sg17
I60814
sg18
I0
sg19
I850000
sg20
I896153
sg21
I10
sg22
I1142760
sg23
I27
sg24
I1271457
sg25
I259907
sg26
I231946
sg27
I1566469
sg28
I636246
ssS'DODSON KEITH'
p270
(dp271
g3
I176
sg4
F0.3167377818400655
sg5
I0
sg6
I28164
sg7
I0
sg8
F0.06842105263157895
sg9
I0
sg10
I0
sg11
F0.0
sg12
F0.0
sg13
I0
sg14
I114
sg15
I0
sg16
I14
sg17
I774
sg18
I0
sg19
I70000
sg20
I0
sg21
I10
sg22
I291777
sg23
I3
sg24
I0
sg25
I0
sg26
I221003
sg27
I319941
sg28
I0
ssS'YEAGER F SCOTT'
p272
(dp273
g3
I0
sg4
F0.0
sg5
I0
sg6
I53947
sg7
I1
sg8
I0
sg9
I0
sg10
I0
sg11
F52.45198638914667
sg12
F38.79432550032153
sg13
I0
sg14
I0
sg15
I0
sg16
I0
sg17
I147950
sg18
I0
sg19
I0
sg20
I11884758
sg21
I0
sg22
I306353
sg23
I0
sg24
I11884758
sg25
I3576206
sg26
I158403
sg27
I360300
sg28
I8308552
ssS'HIRKO JOSEPH'
p274
(dp275
g3
I0
sg4
I0
sg5
I10259
sg6
I77978
sg7
I1
sg8
I0
sg9
I0
sg10
I0
sg11
I0
sg12
F10772.43137254902
sg13
I0
sg14
I0
sg15
I0
sg16
I0
sg17
I2856
sg18
I0
sg19
I0
sg20
I30766064
sg21
I0
sg22
I2856
sg23
I0
sg24
I30766064
sg25
I0
sg26
I0
sg27
I91093
sg28
I30766064
ssS'DIETRICH JANET R'
p276
(dp277
g3
I2572
sg4
F2.3990403838464616
sg5
I0
sg6
I3475
sg7
I0
sg8
F0.12106261859582543
sg9
I0
sg10
I556416
sg11
F6.197596961215514
sg12
F2.84690790796322
sg13
I0
sg14
I1902
sg15
I0
sg16
I63
sg17
I473
sg18
I0
sg19
I600000
sg20
I1865087
sg21
I305
sg22
I850573
sg23
I14
sg24
I2421503
sg25
I315068
sg26
I250100
sg27
I1410464
sg28
I1550019
ssS'DERRICK JR. JAMES V'
p278
(dp279
g3
I2181
sg4
F1.6247778624016247
sg5
I0
sg6
I51124
sg7
I0
sg8
F0.027184466019417475
sg9
I-1284000
sg10
I484000
sg11
F17.9373709063214
sg12
F7.166875279357653
sg13
I-1787380
sg14
I1401
sg15
I0
sg16
I909
sg17
I7482
sg18
I0
sg19
I800000
sg20
I8831913
sg21
I64
sg22
I1299857
sg23
I20
sg24
I9315913
sg25
I1787380
sg26
I492375
sg27
I550981
sg28
I8831913
ssS'FREVERT MARK A'
p280
(dp281
g3
I3275
sg4
F1.885134956811558
sg5
I6426990
sg6
I86987
sg7
I0
sg8
F0.07524271844660194
sg9
I-3367011
sg10
I1617011
sg11
F9.834294752161307
sg12
F1.548278013182562
sg13
I0
sg14
I2979
sg15
I2000000
sg16
I21
sg17
I7427621
sg18
I0
sg19
I2000000
sg20
I14622185
sg21
I242
sg22
I10488553
sg23
I6
sg24
I16239196
sg25
I4188667
sg26
I1060932
sg27
I17252530
sg28
I10433518
ssS'PAI LOU L'
p282
(dp283
g3
I0
sg4
F3.8185574253758414
sg5
I0
sg6
I32047
sg7
I0
sg8
I0
sg9
I0
sg10
I0
sg11
F58.66895398256447
sg12
F7.704736722245657
sg13
I0
sg14
I0
sg15
I0
sg16
I0
sg17
I1829457
sg18
I0
sg19
I1000000
sg20
I23817930
sg21
I0
sg22
I3091336
sg23
I0
sg24
I23817930
sg25
I8453763
sg26
I261879
sg27
I3123383
sg28
I15364167
ssS'BAY FRANKLIN R'
p284
(dp285
g3
I0
sg4
F1.6689545251615756
sg5
I260455
sg6
I129142
sg7
I0
sg8
I0
sg9
I-201641
sg10
I0
sg11
F0.0
sg12
F0.09849939037734079
sg13
I-82782
sg14
I0
sg15
I0
sg16
I0
sg17
I69
sg18
I0
sg19
I400000
sg20
I63014
sg21
I0
sg22
I639740
sg23
I0
sg24
I63014
sg25
I145796
sg26
I239671
sg27
I827696
sg28
I0
ssS'HAYSLETT RODERICK J'
p286
(dp287
g3
I2649
sg4
I0
sg5
I0
sg6
I0
sg7
I0
sg8
F0.019676549865229112
sg9
I0
sg10
I0
sg11
I0
sg12
I0
sg13
I0
sg14
I571
sg15
I0
sg16
I1061
sg17
I0
sg18
I0
sg19
I0
sg20
I346663
sg21
I35
sg22
I0
sg23
I38
sg24
I346663
sg25
I346663
sg26
I0
sg27
I0
sg28
I0
ssS'FUGH JOHN L'
p288
(dp289
g3
I0
sg4
I0
sg5
I50591
sg6
I0
sg7
I0
sg8
I0
sg9
I0
sg10
I0
sg11
I0
sg12
I0
sg13
I0
sg14
I0
sg15
I0
sg16
I0
sg17
I0
sg18
I0
sg19
I0
sg20
I176378
sg21
I0
sg22
I0
sg23
I0
sg24
I176378
sg25
I0
sg26
I0
sg27
I50591
sg28
I176378
ssS'FALLON JAMES B'
p290
(dp291
g3
I1755
sg4
F8.207808580771403
sg5
I0
sg6
I95924
sg7
I0
sg8
F0.04316939890710383
sg9
I0
sg10
I374347
sg11
F3.0869797890921507
sg12
F0.8442569389492242
sg13
I0
sg14
I1604
sg15
I0
sg16
I75
sg17
I401481
sg18
I0
sg19
I2500000
sg20
I2332399
sg21
I42
sg22
I3206069
sg23
I37
sg24
I2706746
sg25
I1392142
sg26
I304588
sg27
I3676340
sg28
I940257
ssS'KOENIG MARK E'
p292
(dp293
g3
I2374
sg4
F2.2584579249288588
sg5
I0
sg6
I127017
sg7
I1
sg8
F0.02792607802874743
sg9
I0
sg10
I300000
sg11
F2.1672710730256237
sg12
F1.9131742048458984
sg13
I0
sg14
I2271
sg15
I0
sg16
I61
sg17
I150458
sg18
I0
sg19
I700000
sg20
I1920055
sg21
I53
sg22
I1160404
sg23
I15
sg24
I2220055
sg25
I1248318
sg26
I309946
sg27
I1587421
sg28
I671737
ssS'SAVAGE FRANK'
p294
(dp295
g3
I0
sg4
I0
sg5
I0
sg6
I0
sg7
I0
sg8
I0
sg9
I-121284
sg10
I0
sg11
I0
sg12
I0
sg13
I0
sg14
I0
sg15
I0
sg16
I0
sg17
I0
sg18
I125034
sg19
I0
sg20
I0
sg21
I0
sg22
I0
sg23
I0
sg24
I0
sg25
I0
sg26
I0
sg27
I3750
sg28
I0
ssS'IZZO LAWRENCE L'
p296
(dp297
g3
I496
sg4
F0.0
sg5
I0
sg6
I28093
sg7
I0
sg8
F0.06407766990291262
sg9
I0
sg10
I312500
sg11
F25.390763890517626
sg12
F3.7415916871415122
sg13
I0
sg14
I437
sg15
I0
sg16
I19
sg17
I1553729
sg18
I0
sg19
I0
sg20
I5819980
sg21
I28
sg22
I1639003
sg23
I5
sg24
I6132480
sg25
I3654808
sg26
I85274
sg27
I1979596
sg28
I2165172
ssS'TILNEY ELIZABETH A'
p298
(dp299
g3
I460
sg4
F1.2129151201998885
sg5
I0
sg6
I0
sg7
I0
sg8
F0.04384133611691023
sg9
I-575000
sg10
I275000
sg11
F2.3904535493939467
sg12
F2.063277727972685
sg13
I0
sg14
I379
sg15
I0
sg16
I19
sg17
I152055
sg18
I0
sg19
I300000
sg20
I1168042
sg21
I10
sg22
I699393
sg23
I11
sg24
I1443042
sg25
I576792
sg26
I247338
sg27
I399393
sg28
I591250
ssS'MARTIN AMANDA K'
p300
(dp301
g3
I1522
sg4
F0.0
sg5
I85430
sg6
I8211
sg7
I0
sg8
F0.0045662100456621
sg9
I0
sg10
I5145434
sg11
F5.923842660814279
sg12
F2.2777381270673915
sg13
I0
sg14
I477
sg15
I0
sg16
I230
sg17
I2818454
sg18
I0
sg19
I0
sg20
I2070306
sg21
I8
sg22
I3167941
sg23
I0
sg24
I7215740
sg25
I0
sg26
I349487
sg27
I8407016
sg28
I2070306
ssS'BUY RICHARD B'
p302
(dp303
g3
I3523
sg4
F2.722767784211577
sg5
I649584
sg6
I0
sg7
I0
sg8
F0.04960664335664336
sg9
I-694862
sg10
I769862
sg11
F7.692765908527104
sg12
F2.583707616493718
sg13
I0
sg14
I2333
sg15
I0
sg16
I1053
sg17
I400572
sg18
I0
sg19
I900000
sg20
I3444470
sg21
I156
sg22
I1631118
sg23
I71
sg24
I4214332
sg25
I901657
sg26
I330546
sg27
I2355702
sg28
I2542813
ssS'GRAMM WENDY L'
p304
(dp305
g3
I0
sg4
I0
sg5
I0
sg6
I0
sg7
I0
sg8
I0
sg9
I0
sg10
I0
sg11
I0
sg12
I0
sg13
I0
sg14
I0
sg15
I0
sg16
I0
sg17
I0
sg18
I119292
sg19
I0
sg20
I0
sg21
I0
sg22
I0
sg23
I0
sg24
I0
sg25
I0
sg26
I0
sg27
I119292
sg28
I0
ssS'CAUSEY RICHARD A'
p306
(dp307
g3
I1892
sg4
F2.4085416521150607
sg5
I0
sg6
I30674
sg7
I1
sg8
F0.03606388459556929
sg9
I-235000
sg10
I350000
sg11
F0.0
sg12
F1.6552083357514782
sg13
I0
sg14
I1585
sg15
I0
sg16
I49
sg17
I307895
sg18
I0
sg19
I1000000
sg20
I2502063
sg21
I58
sg22
I1723084
sg23
I12
sg24
I2852063
sg25
I2502063
sg26
I415189
sg27
I1868758
sg28
I0
ssS'TAYLOR MITCHELL S'
p308
(dp309
g3
I533
sg4
F2.2623240100447184
sg5
I227449
sg6
I0
sg7
I0
sg8
F0.0
sg9
I0
sg10
I0
sg11
F11.995030428257936
sg12
F4.328464403026303
sg13
I0
sg14
I300
sg15
I0
sg16
I29
sg17
I0
sg18
I0
sg19
I600000
sg20
I3745048
sg21
I0
sg22
I865214
sg23
I0
sg24
I3745048
sg25
I563798
sg26
I265214
sg27
I1092663
sg28
I3181250
ssS'DONAHUE JR JEFFREY M'
p310
(dp311
g3
I865
sg4
F2.8714900520816506
sg5
I0
sg6
I96268
sg7
I0
sg8
F0.22435174746335965
sg9
I-300000
sg10
I0
sg11
F2.7491645758629724
sg12
F1.0013858370418678
sg13
I0
sg14
I772
sg15
I0
sg16
I22
sg17
I891
sg18
I0
sg19
I800000
sg20
I1080988
sg21
I188
sg22
I1079492
sg23
I11
sg24
I1080988
sg25
I315068
sg26
I278601
sg27
I875760
sg28
I765920
ssS'GLISAN JR BEN F'
p312
(dp313
g3
I873
sg4
F2.1820165469588146
sg5
I0
sg6
I125978
sg7
I1
sg8
F0.06524184476940383
sg9
I0
sg10
I71023
sg11
F1.3991381034639512
sg12
F0.7900887487294043
sg13
I0
sg14
I874
sg15
I0
sg16
I16
sg17
I200308
sg18
I0
sg19
I600000
sg20
I778546
sg21
I52
sg22
I1075283
sg23
I6
sg24
I849569
sg25
I393818
sg26
I274975
sg27
I1272284
sg28
I384728
ss.