(lp0
S'bonus'
p1
aS'ica_4'
p2
aS'exercised_stock_options'
p3
aS'expenses'
p4
aS'pca_2'
p5
aS'deferred_income'
p6
aS'other'
p7
aS'kca_1'
p8
aS'from_this_person_to_poi'
p9
aS'total_stock_value'
p10
aS'kca_4'
p11
aS'shared_receipt_with_poi'
p12
aS'from_poi_to_this_person'
p13
aS'pca_4'
p14
aS'ica_1'
p15
aS'kca_2'
p16
aS'pca_3'
p17
aS'kca_3'
p18
aS'restricted_stock'
p19
aS'long_term_incentive'
p20
aS'pca_1'
p21
a.