(lp0
S'poi'
p1
aS'retention_incentives/key_payments'
p2
aS'bonus/salary'
p3
aS'poi_emailratio'
p4
aS'exercised_stock_options/salary'
p5
aS'key_payments'
p6
aS'retention_incentives'
p7
aS'bonus'
p8
aS'deferral_payments'
p9
aS'deferred_income'
p10
aS'director_fees'
p11
aS'exercised_stock_options'
p12
aS'expenses'
p13
aS'from_messages'
p14
aS'from_poi_to_this_person'
p15
aS'from_this_person_to_poi'
p16
aS'loan_advances'
p17
aS'long_term_incentive'
p18
aS'other'
p19
aS'restricted_stock'
p20
aS'restricted_stock_deferred'
p21
aS'salary'
p22
aS'shared_receipt_with_poi'
p23
aS'to_messages'
p24
aS'total_payments'
p25
aS'total_stock_value'
p26
a.