(lp0
S'poi'
p1
aS'expenses'
p2
aS'other'
p3
aS'bonus'
p4
aS'from_this_person_to_poi'
p5
aS'pca_2'
p6
aS'kca_4'
p7
aS'ica_2'
p8
aS'pca_1'
p9
aS'exercised_stock_options'
p10
aS'deferred_income'
p11
aS'long_term_incentive'
p12
aS'shared_receipt_with_poi'
p13
aS'pca_4'
p14
aS'kca_3'
p15
aS'from_poi_to_this_person'
p16
aS'salary'
p17
aS'pca_3'
p18
a.