(lp0
S'poi'
p1
aS'odd_payments'
p2
aS'key_payments'
p3
aS'retention_incentives'
p4
aS'salary'
p5
aS'bonus'
p6
aS'total_stock_value'
p7
aS'exercised_stock_options'
p8
aS'total_of_totals'
p9
aS'deferral_payments'
p10
a.